
CH583_Watch.elf:     file format elf32-littleriscv
CH583_Watch.elf
architecture: riscv:rv32, flags 0x00000112:
EXEC_P, HAS_SYMS, D_PAGED
start address 0x00000000

Program Header:
    LOAD off    0x00001000 vaddr 0x00000000 paddr 0x00000000 align 2**12
         filesz 0x00000004 memsz 0x00000004 flags r-x
    LOAD off    0x00002000 vaddr 0x20000000 paddr 0x00000004 align 2**12
         filesz 0x00000c2c memsz 0x00000c2c flags r-x
    LOAD off    0x00002c30 vaddr 0x00000c30 paddr 0x00000c30 align 2**12
         filesz 0x00004964 memsz 0x00004964 flags r-x
    LOAD off    0x00007c2c vaddr 0x20000c2c paddr 0x00005594 align 2**12
         filesz 0x000000c4 memsz 0x000022fc flags rw-

Sections:
Idx Name            Size      VMA       LMA       File off  Algn  Flags
  0 .init           00000004  00000000  00000000  00001000  2**1  CONTENTS, ALLOC, LOAD, READONLY, CODE
  1 .highcodelalign 00000000  00000004  00000004  00007cf0  2**0  CONTENTS
  2 .highcode       00000c2c  20000000  00000004  00002000  2**1  CONTENTS, ALLOC, LOAD, READONLY, CODE
  3 .text           00004964  00000c30  00000c30  00002c30  2**2  CONTENTS, ALLOC, LOAD, READONLY, CODE
  4 .fini           00000000  00005594  00005594  00007cf0  2**0  CONTENTS, ALLOC, LOAD, CODE
  5 .dalign         00000000  20000c2c  20000c2c  00007cf0  2**0  CONTENTS
  6 .dlalign        00000000  00005594  00005594  00007cf0  2**0  CONTENTS
  7 .data           000000c4  20000c2c  00005594  00007c2c  2**2  CONTENTS, ALLOC, LOAD, DATA
  8 .bss            00002238  20000cf0  00005658  00007cf0  2**2  ALLOC
  9 .stack          00000000  20008000  20008000  00007cf0  2**0  CONTENTS
 10 .debug_info     0000d04d  00000000  00000000  00007cf0  2**0  CONTENTS, READONLY, DEBUGGING
 11 .debug_abbrev   0000203c  00000000  00000000  00014d3d  2**0  CONTENTS, READONLY, DEBUGGING
 12 .debug_loc      00002dd5  00000000  00000000  00016d79  2**0  CONTENTS, READONLY, DEBUGGING
 13 .debug_aranges  00000470  00000000  00000000  00019b50  2**3  CONTENTS, READONLY, DEBUGGING
 14 .debug_ranges   00000508  00000000  00000000  00019fc0  2**3  CONTENTS, READONLY, DEBUGGING
 15 .debug_line     000094f9  00000000  00000000  0001a4c8  2**0  CONTENTS, READONLY, DEBUGGING
 16 .debug_str      000020ee  00000000  00000000  000239c1  2**0  CONTENTS, READONLY, DEBUGGING
 17 .comment        00000033  00000000  00000000  00025aaf  2**0  CONTENTS, READONLY
 18 .debug_frame    00001570  00000000  00000000  00025ae4  2**2  CONTENTS, READONLY, DEBUGGING
 19 .stab           00000084  00000000  00000000  00027054  2**2  CONTENTS, READONLY, DEBUGGING
 20 .stabstr        00000117  00000000  00000000  000270d8  2**0  CONTENTS, READONLY, DEBUGGING
SYMBOL TABLE:
00000000 l    d  .init	00000000 .init
00000004 l    d  .highcodelalign	00000000 .highcodelalign
20000000 l    d  .highcode	00000000 .highcode
00000c30 l    d  .text	00000000 .text
00005594 l    d  .fini	00000000 .fini
20000c2c l    d  .dalign	00000000 .dalign
00005594 l    d  .dlalign	00000000 .dlalign
20000c2c l    d  .data	00000000 .data
20000cf0 l    d  .bss	00000000 .bss
20008000 l    d  .stack	00000000 .stack
00000000 l    d  .debug_info	00000000 .debug_info
00000000 l    d  .debug_abbrev	00000000 .debug_abbrev
00000000 l    d  .debug_loc	00000000 .debug_loc
00000000 l    d  .debug_aranges	00000000 .debug_aranges
00000000 l    d  .debug_ranges	00000000 .debug_ranges
00000000 l    d  .debug_line	00000000 .debug_line
00000000 l    d  .debug_str	00000000 .debug_str
00000000 l    d  .comment	00000000 .comment
00000000 l    d  .debug_frame	00000000 .debug_frame
00000000 l    d  .stab	00000000 .stab
00000000 l    d  .stabstr	00000000 .stabstr
00000000 l    df *ABS*	00000000 ./Startup/startup_CH583.o
20000000 l       .highcode	00000000 _vector_base
00000000 l    df *ABS*	00000000 Main.c
00000000 l    df *ABS*	00000000 app.c
00003f84 l     O .text	00000100 s_crchi
00000000 l    df *ABS*	00000000 key.c
00000000 l    df *ABS*	00000000 CH58x_sys.c
00000000 l    df *ABS*	00000000 ISP583.c
20000818 l       .highcode	00000000 .loop18
20000826 l       .highcode	00000000 .loop29
20000834 l       .highcode	00000000 .loop40
20000ac0 l       .highcode	00000000 .loop402
00000000 l    df *ABS*	00000000 fifo.c
00000000 l    df *ABS*	00000000 oled.c
00000000 l    df *ABS*	00000000 CH58x_adc.c
00000000 l    df *ABS*	00000000 CH58x_gpio.c
00000000 l    df *ABS*	00000000 CH58x_spi0.c
00000000 l    df *ABS*	00000000 CH58x_timer1.c
00000000 l    df *ABS*	00000000 CH58x_uart1.c
00000000 l    df *ABS*	00000000 memcpy.c
00000000 l    df *ABS*	00000000 printf.c
00000000 l    df *ABS*	00000000 puts.c
00000000 l    df *ABS*	00000000 sprintf.c
00000000 l    df *ABS*	00000000 wbuf.c
00000000 l    df *ABS*	00000000 wsetup.c
00000000 l    df *ABS*	00000000 fflush.c
00000000 l    df *ABS*	00000000 findfp.c
00002cd8 l     F .text	0000006a std
00000000 l    df *ABS*	00000000 fwalk.c
00000000 l    df *ABS*	00000000 makebuf.c
00000000 l    df *ABS*	00000000 nano-mallocr.c
00000000 l    df *ABS*	00000000 nano-mallocr.c
00000000 l    df *ABS*	00000000 nano-vfprintf.c
00000000 l    df *ABS*	00000000 nano-vfprintf.c
000034e8 l     F .text	0000002a __sfputc_r
00000000 l    df *ABS*	00000000 nano-vfprintf_i.c
00000000 l    df *ABS*	00000000 sbrkr.c
00000000 l    df *ABS*	00000000 stdio.c
00000000 l    df *ABS*	00000000 writer.c
00000000 l    df *ABS*	00000000 closer.c
00000000 l    df *ABS*	00000000 fstatr.c
00000000 l    df *ABS*	00000000 isattyr.c
00000000 l    df *ABS*	00000000 lseekr.c
00000000 l    df *ABS*	00000000 memchr.c
00000000 l    df *ABS*	00000000 memmove.c
00000000 l    df *ABS*	00000000 mlock.c
00000000 l    df *ABS*	00000000 nano-mallocr.c
00000000 l    df *ABS*	00000000 readr.c
00000000 l    df *ABS*	00000000 nano-mallocr.c
00000000 l    df *ABS*	00000000 close.c
00000000 l    df *ABS*	00000000 fstat.c
00000000 l    df *ABS*	00000000 isatty.c
00000000 l    df *ABS*	00000000 lseek.c
00000000 l    df *ABS*	00000000 read.c
00000000 l    df *ABS*	00000000 sbrk.c
20000d10 l     O .bss	00000004 heap_end.1518
00000000 l    df *ABS*	00000000 impure.c
20000c7c l     O .data	00000060 impure_data
00000000 l    df *ABS*	00000000 reent.c
00003e7c g     F .text	00000014 _malloc_usable_size_r
00002690 g     F .text	00000016 TMR1_TimerInit
00003d24 g     F .text	00000030 _isatty_r
20000c40 g     O .data	00000014 menu_des
00002842 g     F .text	000000da _puts_r
00003d54 g     F .text	00000034 _lseek_r
20000834 g     F .highcode	0000000e FLASH_ROM_OUT
00000df8 g     F .text	000000b0 parsePacket
00002802 g     F .text	00000040 printf
200014e0 g       .data	00000000 __global_pointer$
20000ce0 g     O .data	00000004 ENC_TAB
00003c50 g     F .text	00000036 __sseek
00002d92 g     F .text	0000006a __sinit
0000296c g     F .text	000000c0 __swbuf_r
200007d0 g     F .highcode	0000000e mDelayuS
20000712  w    F .highcode	000000be HardFault_Handler
20002f14 g     O .bss	00000010 oled_ctr
00002d4c g     F .text	00000046 __sfmoreglue
20000090  w      .highcode	00000000 GPIOB_IRQHandler
00003dee g     F .text	00000002 __malloc_unlock
20000090  w      .highcode	00000000 GPIOA_IRQHandler
20000090  w      .highcode	00000000 SysTick_Handler
00003da2 g     F .text	0000004a memmove
20000090  w      .highcode	00000000 NMI_Handler
20000cf8 g     O .bss	00000002 enc_code
00000f10 g     F .text	000000f4 system_init
000045ac g     O .text	000005f0 font_16_8_song_eng_tab
200000aa g     F .highcode	0000006e UART1_IRQHandler
00004b9c g     O .text	00000280 font_32_16_zkqk_num_tab
00003cf2 g     F .text	00000032 _fstat_r
20002f24 g     O .bss	00000004 errno
20000cf0 g       .bss	00000000 _sbss
00005344 g     O .text	0000002c img_mh_tab
20000cfb g     O .bss	00000001 func_key_code
20000826 g     F .highcode	0000000e FLASH_ROM_IN
00001004 g     F .text	00000024 main_init
00001504 g     F .text	00000052 OLED_SetDir
00000ea8 g     F .text	00000068 app_uart_process
20000090  w      .highcode	00000000 UART0_IRQHandler
0000274c g     F .text	000000b6 memcpy
00002170 g     F .text	0000020a OLED_Init
00002d42 g     F .text	0000000a _cleanup_r
0000326c g     F .text	0000027c _svfprintf_r
0000242c g     F .text	00000020 ADC_ExcutSingleConver
00001398 g     F .text	0000002e Key_Init
0000291c g     F .text	0000000a puts
20000d14 g     O .bss	00000014 Timer_Task_Cnt
00002722 g     F .text	0000002a UART1_INTCfg
00003ea0 g     F .text	00000010 _fstat
00000004 g       .init	00000000 _einit
20000090  w      .highcode	00000000 BB_IRQHandler
200008c2 g     F .highcode	0000036a FLASH_EEPROM_CMD
20000090  w      .highcode	00000000 Break_Point_Handler
000024f2 g     F .text	000000a6 GPIOB_ModeCfg
00004e1c g     O .text	00000528 font_44_22_zkqk_num_tab
20001d08 g     O .bss	00000200 app_uart_tx_buffer
00003ba2 g     F .text	00000030 _sbrk_r
00002708 g     F .text	0000001a UART1_ByteTrigCfg
20000090  w      .highcode	00000000 TMR0_IRQHandler
00001424 g     F .text	000000e0 OLED_Refresh_Gram
00003e48 g     F .text	00000034 _read_r
00001b16 g     F .text	000000d6 oled_menu_handle
20000cf4 g     O .bss	00000004 uwTick
20000806 g     F .highcode	00000012 FLASH_ROM_BEG
00001028 g     F .text	000001c8 main_loop
200007de g     F .highcode	00000028 mDelaymS
20000090  w      .highcode	00000000 Ecall_M_Mode_Handler
20000cf2 g     O .bss	00000001 for_uart_rx_black_hole
00003eb0 g     F .text	00000010 _isatty
00005590 g     O .text	00000004 _global_impure_ptr
20000842 g     F .highcode	00000048 FLASH_ROM_ADDR
00003df0 g     F .text	00000058 _realloc_r
00001bec g     F .text	00000584 Time_Display
00003ee0 g     F .text	00000024 _sbrk
20000144 g     F .highcode	000000ee Button_handle
00002408 g     F .text	00000024 ADC_ExtSingleChSampInit
20001cfc g     O .bss	0000000c app_uart_rx_fifo
20000cfc g     O .bss	00000001 func_key_fun
20000090  w      .highcode	00000000 RTC_IRQHandler
20002f28 g       .bss	00000000 _ebss
000026d6 g     F .text	00000032 UART1_DefInit
2000088a g     F .highcode	00000038 FLASH_ROM_WAIT
0000420c g     O .text	000003a0 font_16_16_song_chin_tab
000054f4 g     O .text	00000020 __sf_fake_stderr
20002f28 g       .bss	00000000 end
000011f0 g     F .text	00000026 app_drv_fifo_init
20000090  w      .highcode	00000000 UART2_IRQHandler
20000090  w      .highcode	00000000 PWMX_IRQHandler
00003182 g     F .text	000000ea __ssputs_r
0000134a g     F .text	0000004e app_drv_fifo_read_to_same_addr
00003512 g     F .text	00000042 __sfputs_r
00001584 g     F .text	00000060 OLED_DrawPoint
00003d88 g     F .text	0000001a memchr
00003000 g     F .text	000000a8 _free_r
00000000 g       .init	00000000 _start
20000cfa g     O .bss	00000001 func_key_cnt
000041b8 g     O .text	00000018 font_16_16_desc
00003ec0 g     F .text	00000010 _lseek
20000c54 g     O .data	00000028 menu_main
20000090  w      .highcode	00000000 ADC_IRQHandler
20000000 g       .highcode	00000000 _highcode_vma_start
00000d90 g     F .text	0000001e app_uart_tx_data
00001288 g     F .text	00000060 app_drv_fifo_write_from_same_addr
20000090  w      .highcode	00000000 TMR2_IRQHandler
00003cc2 g     F .text	00000030 _close_r
20000d04 g     O .bss	00000004 IRQ_STA
20000c2c g       .data	00000000 _data_vma
2000031a g     F .highcode	00000386 SetSysClock
20000090  w      .highcode	00000000 USB_IRQHandler
00002a2c g     F .text	0000010c __swsetup_r
00002dfc g     F .text	000000a0 __sfp
20000d00 g     O .bss	00000002 g_enc_old_sta
00003bd2 g     F .text	00000030 __sread
00003dec g     F .text	00000002 __malloc_lock
00002c74 g     F .text	00000064 _fflush_r
00001556 g     F .text	0000002e OLED_Clear
20000ce4 g     O .data	00000002 screen_des
00005514 g     O .text	00000020 __sf_fake_stdin
20000090  w      .highcode	00000000 I2C_IRQHandler
00000cde g     F .text	000000a8 memset
00000d86 g     F .text	0000000a main
00003c86 g     F .text	00000006 __sclose
000030a8 g     F .text	000000da _malloc_r
20000090  w      .highcode	00000000 USB2_IRQHandler
00001216 g     F .text	00000072 app_drv_fifo_write
000041d0 g     O .text	0000003b font_16_16_song_chin_index
00000004 g       .highcodelalign	00000000 _highcode_lma
20000232 g     F .highcode	000000e8 Check_enc
00002802 g     F .text	00000040 iprintf
00002926 g     F .text	00000046 sprintf
20000090  w      .highcode	00000000 LLE_IRQHandler
00000000 g       .init	00000000 _sinit
00003c8c g     F .text	00000036 _write_r
000037ee g     F .text	0000010c _printf_common
20001f08 g     O .bss	0000000c app_uart_tx_fifo
20000ce8 g     O .data	00000004 _impure_ptr
00002b38 g     F .text	0000013c __sflush_r
20000118 g     F .highcode	0000002c HAL_IncTick
0000326c g     F .text	0000027c _svfiprintf_r
00004084 g     O .text	00000100 s_crclo
20000090  w      .highcode	00000000 WDOG_BAT_IRQHandler
20000090  w      .highcode	00000000 Ecall_U_Mode_Handler
20000090  w      .highcode	00000000 TMR3_IRQHandler
20008000 g       .stack	00000000 _eusrstack
000019c2 g     F .text	00000154 Display_String
20000090  w      .highcode	00000000 SW_Handler
20000cf0 g     O .bss	00000002 RoughCalib_Value
0000244c g     F .text	000000a6 GPIOA_ModeCfg
20000d28 g     O .bss	000007d4 adc_buf
00002f08 g     F .text	0000005a __swhatbuf_r
20000cf3 g     O .bss	00000001 uart_rx_flag
00002626 g     F .text	00000042 GetSysClock
00002668 g     F .text	00000028 _write
20000cf0 g       .data	00000000 _edata
00002602 g     F .text	00000024 SPI0_MasterSendByte
20000090  w      .highcode	00000000 SPI0_IRQHandler
20000c2c g       .highcode	00000000 _highcode_vma_end
00005594 g       .dlalign	00000000 _data_lma
00003c02 g     F .text	0000004e __swrite
000015e4 g     F .text	000003de OLED_Show_Picture
00003554 g     F .text	0000029a _vfiprintf_r
00002e9c g     F .text	0000006c _fwalk_reent
00005534 g     O .text	00000020 __sf_fake_stdout
00002926 g     F .text	00000046 siprintf
20000c2c g     O .data	00000014 Timer_Task_Tick
00003ed0 g     F .text	00000010 _read
00000c30  w      .text	00000000 handle_reset
20001f14 g     O .bss	00001000 OLED_GRAM
00002f62 g     F .text	0000009e __smakebuf_r
000038fa g     F .text	000002a8 _printf_i
20000090  w      .highcode	00000000 UART3_IRQHandler
20000d0c g     O .bss	00000004 __malloc_sbrk_start
200014fc g     O .bss	00000800 app_uart_rx_buffer
20000818 g     F .highcode	0000000e FLASH_ROM_END
20000d08 g     O .bss	00000004 __malloc_free_list
000013c6 g     F .text	0000005e OLED_WR_Byte
00003554 g     F .text	0000029a _vfprintf_r
20000092 g     F .highcode	00000018 TMR1_IRQHandler
00002598 g     F .text	0000006a SPI0_DataMode
200006a0 g     F .highcode	00000072 SYS_ResetExecute
0000237a g     F .text	0000008e ADC_DataCalib_Rough
000012e8 g     F .text	00000062 app_drv_fifo_read
00003e90 g     F .text	00000010 _close
00000dae g     F .text	0000004a crc16_calc
000026a6 g     F .text	00000030 UART1_BaudRateCfg



Disassembly of section .init:

00000000 <_sinit>:
_start():
C:\MRS_DATA\workspace\CH583M\obj/../Startup/startup_CH583.S:17
   0:	4310006f          	j	c30 <handle_reset>

Disassembly of section .highcode:

20000000 <_highcode_vma_start>:
	...
_vector_base():
20000008:	0090                	addi	a2,sp,64
2000000a:	2000                	fld	fs0,0(s0)
2000000c:	0712                	slli	a4,a4,0x4
2000000e:	2000                	fld	fs0,0(s0)
20000010:	bda9                	j	1ffffe6a <_data_lma+0x1fffa8d6>
20000012:	f5f9                	bnez	a1,1fffffe0 <_data_lma+0x1fffaa4c>
20000014:	0090                	addi	a2,sp,64
20000016:	2000                	fld	fs0,0(s0)
	...
20000020:	0090                	addi	a2,sp,64
20000022:	2000                	fld	fs0,0(s0)
20000024:	0090                	addi	a2,sp,64
20000026:	2000                	fld	fs0,0(s0)
	...
20000030:	0090                	addi	a2,sp,64
20000032:	2000                	fld	fs0,0(s0)
20000034:	0000                	unimp
20000036:	0000                	unimp
20000038:	0090                	addi	a2,sp,64
2000003a:	2000                	fld	fs0,0(s0)
2000003c:	0000                	unimp
2000003e:	0000                	unimp
20000040:	0090                	addi	a2,sp,64
20000042:	2000                	fld	fs0,0(s0)
20000044:	0090                	addi	a2,sp,64
20000046:	2000                	fld	fs0,0(s0)
20000048:	0090                	addi	a2,sp,64
2000004a:	2000                	fld	fs0,0(s0)
2000004c:	0090                	addi	a2,sp,64
2000004e:	2000                	fld	fs0,0(s0)
20000050:	0090                	addi	a2,sp,64
20000052:	2000                	fld	fs0,0(s0)
20000054:	0090                	addi	a2,sp,64
20000056:	2000                	fld	fs0,0(s0)
20000058:	0090                	addi	a2,sp,64
2000005a:	2000                	fld	fs0,0(s0)
2000005c:	0090                	addi	a2,sp,64
2000005e:	2000                	fld	fs0,0(s0)
20000060:	0092                	slli	ra,ra,0x4
20000062:	2000                	fld	fs0,0(s0)
20000064:	0090                	addi	a2,sp,64
20000066:	2000                	fld	fs0,0(s0)
20000068:	0090                	addi	a2,sp,64
2000006a:	2000                	fld	fs0,0(s0)
2000006c:	00aa                	slli	ra,ra,0xa
2000006e:	2000                	fld	fs0,0(s0)
20000070:	0090                	addi	a2,sp,64
20000072:	2000                	fld	fs0,0(s0)
20000074:	0090                	addi	a2,sp,64
20000076:	2000                	fld	fs0,0(s0)
20000078:	0090                	addi	a2,sp,64
2000007a:	2000                	fld	fs0,0(s0)
2000007c:	0090                	addi	a2,sp,64
2000007e:	2000                	fld	fs0,0(s0)
20000080:	0090                	addi	a2,sp,64
20000082:	2000                	fld	fs0,0(s0)
20000084:	0090                	addi	a2,sp,64
20000086:	2000                	fld	fs0,0(s0)
20000088:	0090                	addi	a2,sp,64
2000008a:	2000                	fld	fs0,0(s0)
2000008c:	0090                	addi	a2,sp,64
2000008e:	2000                	fld	fs0,0(s0)

20000090 <ADC_IRQHandler>:
GPIOB_IRQHandler():
C:\MRS_DATA\workspace\CH583M\obj/../Startup/startup_CH583.S:121
20000090:	a001                	j	20000090 <ADC_IRQHandler>

20000092 <TMR1_IRQHandler>:
TMR1_IRQHandler():
C:\MRS_DATA\workspace\CH583M_Watch\obj/../src/Main.c:35

__attribute__((interrupt("WCH-Interrupt-fast")))
__attribute__((section(".highcode")))
void TMR1_IRQHandler(void) // TMR1 定时中断
{
    if(TMR1_GetITFlag(TMR0_3_IT_CYC_END))
20000092:	40002737          	lui	a4,0x40002
20000096:	40674783          	lbu	a5,1030(a4) # 40002406 <_eusrstack+0x1fffa406>
2000009a:	8b85                	andi	a5,a5,1
2000009c:	c789                	beqz	a5,200000a6 <TMR1_IRQHandler+0x14>
C:\MRS_DATA\workspace\CH583M_Watch\obj/../src/Main.c:37
    {
        TMR1_ClearITFlag(TMR0_3_IT_CYC_END); // 清除中断标志
2000009e:	4785                	li	a5,1
200000a0:	40f70323          	sb	a5,1030(a4)
C:\MRS_DATA\workspace\CH583M_Watch\obj/../src/Main.c:38
        HAL_IncTick();
200000a4:	2895                	jal	20000118 <HAL_IncTick>
C:\MRS_DATA\workspace\CH583M_Watch\obj/../src/Main.c:40
    }
}
200000a6:	30200073          	mret

200000aa <UART1_IRQHandler>:
UART1_IRQHandler():
C:\MRS_DATA\workspace\CH583M_Watch\obj/../src/Main.c:55
__HIGH_CODE
void UART1_IRQHandler(void)
{
    uint16_t error;

    switch(UART1_GetITFlag())
200000aa:	40003737          	lui	a4,0x40003
200000ae:	40474783          	lbu	a5,1028(a4) # 40003404 <_eusrstack+0x1fffb404>
200000b2:	4699                	li	a3,6
200000b4:	8bbd                	andi	a5,a5,15
200000b6:	02d78d63          	beq	a5,a3,200000f0 <UART1_IRQHandler+0x46>
200000ba:	4731                	li	a4,12
200000bc:	00e78563          	beq	a5,a4,200000c6 <UART1_IRQHandler+0x1c>
200000c0:	4711                	li	a4,4
200000c2:	02e79963          	bne	a5,a4,200000f4 <UART1_IRQHandler+0x4a>
C:\MRS_DATA\workspace\CH583M_Watch\obj/../src/Main.c:64
            UART1_GetLinSTA();
            break;
        }
        case UART_II_RECV_RDY: // 数据达到设置触发点
        case UART_II_RECV_TOUT: // 接收超时，暂时一帧数据接收完成
            error = app_drv_fifo_write_from_same_addr(&app_uart_rx_fifo, (uint8_t *)&R8_UART1_RBR, R8_UART1_RFC);
200000c6:	400035b7          	lui	a1,0x40003
200000ca:	40a5c603          	lbu	a2,1034(a1) # 4000340a <_eusrstack+0x1fffb40a>
200000ce:	00002517          	auipc	a0,0x2
200000d2:	c2e50513          	addi	a0,a0,-978 # 20001cfc <app_uart_rx_fifo>
200000d6:	40858593          	addi	a1,a1,1032
200000da:	e0001097          	auipc	ra,0xe0001
200000de:	1ae080e7          	jalr	430(ra) # 1288 <app_drv_fifo_write_from_same_addr>
C:\MRS_DATA\workspace\CH583M_Watch\obj/../src/Main.c:65
            if(error != APP_DRV_FIFO_RESULT_SUCCESS)
200000e2:	0542                	slli	a0,a0,0x10
200000e4:	8141                	srli	a0,a0,0x10
200000e6:	e50d                	bnez	a0,20000110 <UART1_IRQHandler+0x66>
C:\MRS_DATA\workspace\CH583M_Watch\obj/../src/Main.c:73
                {
                    //fifo full,put to fifo black hole
                    for_uart_rx_black_hole = R8_UART1_RBR;
                }
            }
            uart_rx_flag = 1;
200000e8:	4785                	li	a5,1
200000ea:	80f189a3          	sb	a5,-2029(gp) # 20000cf3 <uart_rx_flag>
C:\MRS_DATA\workspace\CH583M_Watch\obj/../src/Main.c:74
            break;
200000ee:	a019                	j	200000f4 <UART1_IRQHandler+0x4a>
C:\MRS_DATA\workspace\CH583M_Watch\obj/../src/Main.c:59
            UART1_GetLinSTA();
200000f0:	40574783          	lbu	a5,1029(a4)
C:\MRS_DATA\workspace\CH583M_Watch\obj/../src/Main.c:82
        case UART_II_MODEM_CHG: // 只支持串口0
            break;
        default:
            break;
    }
}
200000f4:	30200073          	mret
C:\MRS_DATA\workspace\CH583M_Watch\obj/../src/Main.c:70 (discriminator 3)
                    for_uart_rx_black_hole = R8_UART1_RBR;
200000f8:	40874683          	lbu	a3,1032(a4)
C:\MRS_DATA\workspace\CH583M_Watch\obj/../src/Main.c:67 (discriminator 3)
                for(uint8_t i = 0; i < R8_UART1_RFC; i++)
200000fc:	0785                	addi	a5,a5,1
200000fe:	0ff7f793          	andi	a5,a5,255
C:\MRS_DATA\workspace\CH583M_Watch\obj/../src/Main.c:70 (discriminator 3)
                    for_uart_rx_black_hole = R8_UART1_RBR;
20000102:	80d18923          	sb	a3,-2030(gp) # 20000cf2 <for_uart_rx_black_hole>
C:\MRS_DATA\workspace\CH583M_Watch\obj/../src/Main.c:67 (discriminator 1)
                for(uint8_t i = 0; i < R8_UART1_RFC; i++)
20000106:	40a74683          	lbu	a3,1034(a4)
2000010a:	fed7e7e3          	bltu	a5,a3,200000f8 <UART1_IRQHandler+0x4e>
2000010e:	bfe9                	j	200000e8 <UART1_IRQHandler+0x3e>
C:\MRS_DATA\workspace\CH583M_Watch\obj/../src/Main.c:67
20000110:	4781                	li	a5,0
20000112:	40003737          	lui	a4,0x40003
20000116:	bfc5                	j	20000106 <UART1_IRQHandler+0x5c>

20000118 <HAL_IncTick>:
HAL_IncTick():
C:\MRS_DATA\workspace\CH583M_Watch\obj/../src/app.c:18
__IO uint32_t Timer_Task_Tick[TASK_NUM] = { 5, 10, 25, 200, 2 };

__attribute__((section(".highcode")))
void HAL_IncTick(void) {
    int i;
    uwTick += 10;
20000118:	81418793          	addi	a5,gp,-2028 # 20000cf4 <uwTick>
2000011c:	439c                	lw	a5,0(a5)
C:\MRS_DATA\workspace\CH583M_Watch\obj/../src/app.c:20
    for (i = 0; i < TASK_NUM; i++) {
        if (Timer_Task_Cnt[i] > 0) {
2000011e:	83418593          	addi	a1,gp,-1996 # 20000d14 <Timer_Task_Cnt>
C:\MRS_DATA\workspace\CH583M_Watch\obj/../src/app.c:19
    for (i = 0; i < TASK_NUM; i++) {
20000122:	4615                	li	a2,5
C:\MRS_DATA\workspace\CH583M_Watch\obj/../src/app.c:18
    uwTick += 10;
20000124:	07a9                	addi	a5,a5,10
20000126:	80f1aa23          	sw	a5,-2028(gp) # 20000cf4 <uwTick>
C:\MRS_DATA\workspace\CH583M_Watch\obj/../src/app.c:19
    for (i = 0; i < TASK_NUM; i++) {
2000012a:	4701                	li	a4,0
C:\MRS_DATA\workspace\CH583M_Watch\obj/../src/app.c:20
        if (Timer_Task_Cnt[i] > 0) {
2000012c:	00271793          	slli	a5,a4,0x2
20000130:	97ae                	add	a5,a5,a1
20000132:	4394                	lw	a3,0(a5)
20000134:	c681                	beqz	a3,2000013c <HAL_IncTick+0x24>
C:\MRS_DATA\workspace\CH583M_Watch\obj/../src/app.c:21
            Timer_Task_Cnt[i]--;
20000136:	4394                	lw	a3,0(a5)
20000138:	16fd                	addi	a3,a3,-1
2000013a:	c394                	sw	a3,0(a5)
C:\MRS_DATA\workspace\CH583M_Watch\obj/../src/app.c:19 (discriminator 2)
    for (i = 0; i < TASK_NUM; i++) {
2000013c:	0705                	addi	a4,a4,1
2000013e:	fec717e3          	bne	a4,a2,2000012c <HAL_IncTick+0x14>
C:\MRS_DATA\workspace\CH583M_Watch\obj/../src/app.c:24
        }
    }
    Button_handle();
20000142:	a009                	j	20000144 <Button_handle>

20000144 <Button_handle>:
Button_handle():
C:\MRS_DATA\workspace\CH583M\obj/../src/key.c:28
20000144:	81b1c703          	lbu	a4,-2021(gp) # 20000cfb <func_key_code>
20000148:	81b18793          	addi	a5,gp,-2021 # 20000cfb <func_key_code>
2000014c:	eb19                	bnez	a4,20000162 <Button_handle+0x1e>
C:\MRS_DATA\workspace\CH583M\obj/../src/key.c:30
2000014e:	400017b7          	lui	a5,0x40001
20000152:	0c47a783          	lw	a5,196(a5) # 400010c4 <_eusrstack+0x1fff90c4>
20000156:	00979713          	slli	a4,a5,0x9
C:\MRS_DATA\workspace\CH583M\obj/../src/key.c:32
2000015a:	4785                	li	a5,1
C:\MRS_DATA\workspace\CH583M\obj/../src/key.c:30
2000015c:	04075f63          	bgez	a4,200001ba <Button_handle+0x76>
C:\MRS_DATA\workspace\CH583M\obj/../src/key.c:104
20000160:	8082                	ret
C:\MRS_DATA\workspace\CH583M\obj/../src/key.c:35
20000162:	0007c683          	lbu	a3,0(a5)
20000166:	4705                	li	a4,1
20000168:	00d71e63          	bne	a4,a3,20000184 <Button_handle+0x40>
C:\MRS_DATA\workspace\CH583M\obj/../src/key.c:37
2000016c:	400017b7          	lui	a5,0x40001
20000170:	0c47a783          	lw	a5,196(a5) # 400010c4 <_eusrstack+0x1fff90c4>
20000174:	00979713          	slli	a4,a5,0x9
C:\MRS_DATA\workspace\CH583M\obj/../src/key.c:39
20000178:	4789                	li	a5,2
C:\MRS_DATA\workspace\CH583M\obj/../src/key.c:37
2000017a:	04075463          	bgez	a4,200001c2 <Button_handle+0x7e>
C:\MRS_DATA\workspace\CH583M\obj/../src/key.c:100
2000017e:	80018da3          	sb	zero,-2021(gp) # 20000cfb <func_key_code>
20000182:	a091                	j	200001c6 <Button_handle+0x82>
C:\MRS_DATA\workspace\CH583M\obj/../src/key.c:47
20000184:	0007c603          	lbu	a2,0(a5)
20000188:	4689                	li	a3,2
2000018a:	04c69163          	bne	a3,a2,200001cc <Button_handle+0x88>
C:\MRS_DATA\workspace\CH583M\obj/../src/key.c:49
2000018e:	400017b7          	lui	a5,0x40001
20000192:	0c47a783          	lw	a5,196(a5) # 400010c4 <_eusrstack+0x1fff90c4>
20000196:	00979713          	slli	a4,a5,0x9
2000019a:	02074363          	bltz	a4,200001c0 <Button_handle+0x7c>
C:\MRS_DATA\workspace\CH583M\obj/../src/key.c:51
2000019e:	81a1c783          	lbu	a5,-2022(gp) # 20000cfa <func_key_cnt>
200001a2:	0785                	addi	a5,a5,1
200001a4:	80f18d23          	sb	a5,-2022(gp) # 20000cfa <func_key_cnt>
C:\MRS_DATA\workspace\CH583M\obj/../src/key.c:53
200001a8:	81a1c703          	lbu	a4,-2022(gp) # 20000cfa <func_key_cnt>
200001ac:	07800793          	li	a5,120
200001b0:	fae7f8e3          	bgeu	a5,a4,20000160 <Button_handle+0x1c>
C:\MRS_DATA\workspace\CH583M\obj/../src/key.c:56
200001b4:	478d                	li	a5,3
200001b6:	80f18e23          	sb	a5,-2020(gp) # 20000cfc <func_key_fun>
C:\MRS_DATA\workspace\CH583M\obj/../src/key.c:57
200001ba:	80f18da3          	sb	a5,-2021(gp) # 20000cfb <func_key_code>
200001be:	8082                	ret
C:\MRS_DATA\workspace\CH583M\obj/../src/key.c:63
200001c0:	4791                	li	a5,4
C:\MRS_DATA\workspace\CH583M\obj/../src/key.c:81
200001c2:	80f18da3          	sb	a5,-2021(gp) # 20000cfb <func_key_code>
C:\MRS_DATA\workspace\CH583M\obj/../src/key.c:101
200001c6:	80018d23          	sb	zero,-2022(gp) # 20000cfa <func_key_cnt>
C:\MRS_DATA\workspace\CH583M\obj/../src/key.c:104
200001ca:	bf59                	j	20000160 <Button_handle+0x1c>
C:\MRS_DATA\workspace\CH583M\obj/../src/key.c:67
200001cc:	0007c603          	lbu	a2,0(a5)
200001d0:	458d                	li	a1,3
200001d2:	00c59b63          	bne	a1,a2,200001e8 <Button_handle+0xa4>
C:\MRS_DATA\workspace\CH583M\obj/../src/key.c:98
200001d6:	400017b7          	lui	a5,0x40001
200001da:	0c47a783          	lw	a5,196(a5) # 400010c4 <_eusrstack+0x1fff90c4>
200001de:	00979713          	slli	a4,a5,0x9
200001e2:	f6075fe3          	bgez	a4,20000160 <Button_handle+0x1c>
200001e6:	bf61                	j	2000017e <Button_handle+0x3a>
C:\MRS_DATA\workspace\CH583M\obj/../src/key.c:76
200001e8:	0007c603          	lbu	a2,0(a5)
200001ec:	4591                	li	a1,4
200001ee:	02c59c63          	bne	a1,a2,20000226 <Button_handle+0xe2>
C:\MRS_DATA\workspace\CH583M\obj/../src/key.c:78
200001f2:	400017b7          	lui	a5,0x40001
200001f6:	0c47a783          	lw	a5,196(a5) # 400010c4 <_eusrstack+0x1fff90c4>
200001fa:	00979613          	slli	a2,a5,0x9
200001fe:	00064663          	bltz	a2,2000020a <Button_handle+0xc6>
C:\MRS_DATA\workspace\CH583M\obj/../src/key.c:80
20000202:	80d18e23          	sb	a3,-2020(gp) # 20000cfc <func_key_fun>
C:\MRS_DATA\workspace\CH583M\obj/../src/key.c:81
20000206:	4795                	li	a5,5
20000208:	bf6d                	j	200001c2 <Button_handle+0x7e>
C:\MRS_DATA\workspace\CH583M\obj/../src/key.c:87
2000020a:	81a1c783          	lbu	a5,-2022(gp) # 20000cfa <func_key_cnt>
2000020e:	0785                	addi	a5,a5,1
20000210:	80f18d23          	sb	a5,-2022(gp) # 20000cfa <func_key_cnt>
C:\MRS_DATA\workspace\CH583M\obj/../src/key.c:88
20000214:	81a1c683          	lbu	a3,-2022(gp) # 20000cfa <func_key_cnt>
20000218:	02300793          	li	a5,35
2000021c:	f4d7f2e3          	bgeu	a5,a3,20000160 <Button_handle+0x1c>
C:\MRS_DATA\workspace\CH583M\obj/../src/key.c:90
20000220:	80e18e23          	sb	a4,-2020(gp) # 20000cfc <func_key_fun>
C:\MRS_DATA\workspace\CH583M\obj/../src/key.c:91
20000224:	bfa9                	j	2000017e <Button_handle+0x3a>
C:\MRS_DATA\workspace\CH583M\obj/../src/key.c:96
20000226:	0007c783          	lbu	a5,0(a5)
2000022a:	4715                	li	a4,5
2000022c:	f2f71ae3          	bne	a4,a5,20000160 <Button_handle+0x1c>
20000230:	b75d                	j	200001d6 <Button_handle+0x92>

20000232 <Check_enc>:
Check_enc():
C:\MRS_DATA\workspace\CH583M\obj/../src/key.c:117
20000232:	400016b7          	lui	a3,0x40001
20000236:	0c46a783          	lw	a5,196(a3) # 400010c4 <_eusrstack+0x1fff90c4>
2000023a:	fff7c793          	not	a5,a5
2000023e:	0017f713          	andi	a4,a5,1
20000242:	0c46a783          	lw	a5,196(a3)
C:\MRS_DATA\workspace\CH583M\obj/../src/key.c:118
20000246:	00001697          	auipc	a3,0x1
2000024a:	a9a68693          	addi	a3,a3,-1382 # 20000ce0 <ENC_TAB>
2000024e:	00001617          	auipc	a2,0x1
20000252:	a9264603          	lbu	a2,-1390(a2) # 20000ce0 <ENC_TAB>
C:\MRS_DATA\workspace\CH583M\obj/../src/key.c:117
20000256:	8b89                	andi	a5,a5,2
20000258:	0017b793          	seqz	a5,a5
2000025c:	0786                	slli	a5,a5,0x1
2000025e:	8fd9                	or	a5,a5,a4
C:\MRS_DATA\workspace\CH583M\obj/../src/key.c:118
20000260:	8736                	mv	a4,a3
20000262:	00f61963          	bne	a2,a5,20000274 <Check_enc+0x42>
C:\MRS_DATA\workspace\CH583M\obj/../src/key.c:118 (discriminator 1)
20000266:	8201c603          	lbu	a2,-2016(gp) # 20000d00 <g_enc_old_sta>
2000026a:	0016c683          	lbu	a3,1(a3)
C:\MRS_DATA\workspace\CH583M\obj/../src/key.c:123 (discriminator 1)
2000026e:	4509                	li	a0,2
C:\MRS_DATA\workspace\CH583M\obj/../src/key.c:118 (discriminator 1)
20000270:	0ad60063          	beq	a2,a3,20000310 <Check_enc+0xde>
C:\MRS_DATA\workspace\CH583M\obj/../src/key.c:119 (discriminator 3)
20000274:	00174683          	lbu	a3,1(a4) # 40003001 <_eusrstack+0x1fffb001>
C:\MRS_DATA\workspace\CH583M\obj/../src/key.c:118 (discriminator 3)
20000278:	00d79963          	bne	a5,a3,2000028a <Check_enc+0x58>
C:\MRS_DATA\workspace\CH583M\obj/../src/key.c:119
2000027c:	8201c603          	lbu	a2,-2016(gp) # 20000d00 <g_enc_old_sta>
20000280:	00274683          	lbu	a3,2(a4)
C:\MRS_DATA\workspace\CH583M\obj/../src/key.c:123
20000284:	4509                	li	a0,2
C:\MRS_DATA\workspace\CH583M\obj/../src/key.c:119
20000286:	08d60563          	beq	a2,a3,20000310 <Check_enc+0xde>
C:\MRS_DATA\workspace\CH583M\obj/../src/key.c:120 (discriminator 1)
2000028a:	00274683          	lbu	a3,2(a4)
C:\MRS_DATA\workspace\CH583M\obj/../src/key.c:119 (discriminator 1)
2000028e:	00d79963          	bne	a5,a3,200002a0 <Check_enc+0x6e>
C:\MRS_DATA\workspace\CH583M\obj/../src/key.c:120
20000292:	8201c603          	lbu	a2,-2016(gp) # 20000d00 <g_enc_old_sta>
20000296:	00374683          	lbu	a3,3(a4)
C:\MRS_DATA\workspace\CH583M\obj/../src/key.c:123
2000029a:	4509                	li	a0,2
C:\MRS_DATA\workspace\CH583M\obj/../src/key.c:120
2000029c:	06d60a63          	beq	a2,a3,20000310 <Check_enc+0xde>
C:\MRS_DATA\workspace\CH583M\obj/../src/key.c:121 (discriminator 1)
200002a0:	00374683          	lbu	a3,3(a4)
C:\MRS_DATA\workspace\CH583M\obj/../src/key.c:120 (discriminator 1)
200002a4:	00d79963          	bne	a5,a3,200002b6 <Check_enc+0x84>
C:\MRS_DATA\workspace\CH583M\obj/../src/key.c:121
200002a8:	8201c603          	lbu	a2,-2016(gp) # 20000d00 <g_enc_old_sta>
200002ac:	00074683          	lbu	a3,0(a4)
C:\MRS_DATA\workspace\CH583M\obj/../src/key.c:123
200002b0:	4509                	li	a0,2
C:\MRS_DATA\workspace\CH583M\obj/../src/key.c:121
200002b2:	04d60f63          	beq	a2,a3,20000310 <Check_enc+0xde>
C:\MRS_DATA\workspace\CH583M\obj/../src/key.c:125
200002b6:	00074683          	lbu	a3,0(a4)
200002ba:	00d79963          	bne	a5,a3,200002cc <Check_enc+0x9a>
C:\MRS_DATA\workspace\CH583M\obj/../src/key.c:125 (discriminator 1)
200002be:	8201c603          	lbu	a2,-2016(gp) # 20000d00 <g_enc_old_sta>
200002c2:	00374683          	lbu	a3,3(a4)
C:\MRS_DATA\workspace\CH583M\obj/../src/key.c:130 (discriminator 1)
200002c6:	4505                	li	a0,1
C:\MRS_DATA\workspace\CH583M\obj/../src/key.c:125 (discriminator 1)
200002c8:	04d60463          	beq	a2,a3,20000310 <Check_enc+0xde>
C:\MRS_DATA\workspace\CH583M\obj/../src/key.c:126 (discriminator 3)
200002cc:	00174683          	lbu	a3,1(a4)
C:\MRS_DATA\workspace\CH583M\obj/../src/key.c:125 (discriminator 3)
200002d0:	00d79963          	bne	a5,a3,200002e2 <Check_enc+0xb0>
C:\MRS_DATA\workspace\CH583M\obj/../src/key.c:126
200002d4:	8201c603          	lbu	a2,-2016(gp) # 20000d00 <g_enc_old_sta>
200002d8:	00074683          	lbu	a3,0(a4)
C:\MRS_DATA\workspace\CH583M\obj/../src/key.c:130
200002dc:	4505                	li	a0,1
C:\MRS_DATA\workspace\CH583M\obj/../src/key.c:126
200002de:	02d60963          	beq	a2,a3,20000310 <Check_enc+0xde>
C:\MRS_DATA\workspace\CH583M\obj/../src/key.c:127 (discriminator 1)
200002e2:	00274683          	lbu	a3,2(a4)
C:\MRS_DATA\workspace\CH583M\obj/../src/key.c:126 (discriminator 1)
200002e6:	00d79963          	bne	a5,a3,200002f8 <Check_enc+0xc6>
C:\MRS_DATA\workspace\CH583M\obj/../src/key.c:127
200002ea:	8201c603          	lbu	a2,-2016(gp) # 20000d00 <g_enc_old_sta>
200002ee:	00174683          	lbu	a3,1(a4)
C:\MRS_DATA\workspace\CH583M\obj/../src/key.c:130
200002f2:	4505                	li	a0,1
C:\MRS_DATA\workspace\CH583M\obj/../src/key.c:127
200002f4:	00d60e63          	beq	a2,a3,20000310 <Check_enc+0xde>
C:\MRS_DATA\workspace\CH583M\obj/../src/key.c:128 (discriminator 1)
200002f8:	00374683          	lbu	a3,3(a4)
C:\MRS_DATA\workspace\CH583M\obj/../src/key.c:113 (discriminator 1)
200002fc:	4501                	li	a0,0
C:\MRS_DATA\workspace\CH583M\obj/../src/key.c:127 (discriminator 1)
200002fe:	00d79963          	bne	a5,a3,20000310 <Check_enc+0xde>
C:\MRS_DATA\workspace\CH583M\obj/../src/key.c:128
20000302:	8201c503          	lbu	a0,-2016(gp) # 20000d00 <g_enc_old_sta>
20000306:	00274703          	lbu	a4,2(a4)
2000030a:	8d19                	sub	a0,a0,a4
C:\MRS_DATA\workspace\CH583M\obj/../src/key.c:123
2000030c:	00153513          	seqz	a0,a0
C:\MRS_DATA\workspace\CH583M\obj/../src/key.c:133
20000310:	82f18023          	sb	a5,-2016(gp) # 20000d00 <g_enc_old_sta>
C:\MRS_DATA\workspace\CH583M\obj/../src/key.c:135
20000314:	80a18c23          	sb	a0,-2024(gp) # 20000cf8 <enc_code>
C:\MRS_DATA\workspace\CH583M\obj/../src/key.c:137
20000318:	8082                	ret

2000031a <SetSysClock>:
sys_safe_access_enable():
C:\MRS_DATA\workspace\CH583M\obj/../StdPeriphDriver/inc/CH58x_sys.h:182
2000031a:	80002773          	csrr	a4,0x800
2000031e:	8b21                	andi	a4,a4,8
20000320:	82418793          	addi	a5,gp,-2012 # 20000d04 <IRQ_STA>
20000324:	cb09                	beqz	a4,20000336 <SetSysClock+0x1c>
C:\MRS_DATA\workspace\CH583M\obj/../StdPeriphDriver/inc/CH58x_sys.h:184
20000326:	80002773          	csrr	a4,0x800
2000032a:	82e1a223          	sw	a4,-2012(gp) # 20000d04 <IRQ_STA>
C:\MRS_DATA\workspace\CH583M\obj/../StdPeriphDriver/inc/CH58x_sys.h:185
2000032e:	4398                	lw	a4,0(a5)
20000330:	9b5d                	andi	a4,a4,-9
20000332:	80071073          	csrw	0x800,a4
C:\MRS_DATA\workspace\CH583M\obj/../StdPeriphDriver/inc/CH58x_sys.h:187
20000336:	0001                	nop
20000338:	0001                	nop
C:\MRS_DATA\workspace\CH583M\obj/../StdPeriphDriver/inc/CH58x_sys.h:188
2000033a:	40001737          	lui	a4,0x40001
2000033e:	05700693          	li	a3,87
20000342:	04d70023          	sb	a3,64(a4) # 40001040 <_eusrstack+0x1fff9040>
C:\MRS_DATA\workspace\CH583M\obj/../StdPeriphDriver/inc/CH58x_sys.h:189
20000346:	fa800693          	li	a3,-88
2000034a:	04d70023          	sb	a3,64(a4)
C:\MRS_DATA\workspace\CH583M\obj/../StdPeriphDriver/inc/CH58x_sys.h:190
2000034e:	0001                	nop
20000350:	0001                	nop
SetSysClock():
C:\MRS_DATA\workspace\CH583M\obj/../StdPeriphDriver/CH58x_sys.c:30
20000352:	04b74683          	lbu	a3,75(a4)
20000356:	0df6f693          	andi	a3,a3,223
2000035a:	04d705a3          	sb	a3,75(a4)
sys_safe_access_disable():
C:\MRS_DATA\workspace\CH583M\obj/../StdPeriphDriver/inc/CH58x_sys.h:195
2000035e:	04070023          	sb	zero,64(a4)
C:\MRS_DATA\workspace\CH583M\obj/../StdPeriphDriver/inc/CH58x_sys.h:196
20000362:	80002673          	csrr	a2,0x800
20000366:	4394                	lw	a3,0(a5)
20000368:	8aa1                	andi	a3,a3,8
2000036a:	8ed1                	or	a3,a3,a2
2000036c:	80069073          	csrw	0x800,a3
C:\MRS_DATA\workspace\CH583M\obj/../StdPeriphDriver/inc/CH58x_sys.h:197
20000370:	8201a223          	sw	zero,-2012(gp) # 20000d04 <IRQ_STA>
C:\MRS_DATA\workspace\CH583M\obj/../StdPeriphDriver/inc/CH58x_sys.h:198
20000374:	0001                	nop
20000376:	0001                	nop
SetSysClock():
C:\MRS_DATA\workspace\CH583M\obj/../StdPeriphDriver/CH58x_sys.c:32
20000378:	02057693          	andi	a3,a0,32
2000037c:	18068463          	beqz	a3,20000504 <SetSysClock+0x1ea>
C:\MRS_DATA\workspace\CH583M\obj/../StdPeriphDriver/CH58x_sys.c:34
20000380:	00a74703          	lbu	a4,10(a4)
20000384:	8b11                	andi	a4,a4,4
20000386:	e725                	bnez	a4,200003ee <SetSysClock+0xd4>
sys_safe_access_enable():
C:\MRS_DATA\workspace\CH583M\obj/../StdPeriphDriver/inc/CH58x_sys.h:182
20000388:	80002773          	csrr	a4,0x800
2000038c:	8b21                	andi	a4,a4,8
2000038e:	cb09                	beqz	a4,200003a0 <SetSysClock+0x86>
C:\MRS_DATA\workspace\CH583M\obj/../StdPeriphDriver/inc/CH58x_sys.h:184
20000390:	80002773          	csrr	a4,0x800
20000394:	82e1a223          	sw	a4,-2012(gp) # 20000d04 <IRQ_STA>
C:\MRS_DATA\workspace\CH583M\obj/../StdPeriphDriver/inc/CH58x_sys.h:185
20000398:	4398                	lw	a4,0(a5)
2000039a:	9b5d                	andi	a4,a4,-9
2000039c:	80071073          	csrw	0x800,a4
C:\MRS_DATA\workspace\CH583M\obj/../StdPeriphDriver/inc/CH58x_sys.h:187
200003a0:	0001                	nop
200003a2:	0001                	nop
C:\MRS_DATA\workspace\CH583M\obj/../StdPeriphDriver/inc/CH58x_sys.h:188
200003a4:	40001737          	lui	a4,0x40001
200003a8:	05700693          	li	a3,87
200003ac:	04d70023          	sb	a3,64(a4) # 40001040 <_eusrstack+0x1fff9040>
C:\MRS_DATA\workspace\CH583M\obj/../StdPeriphDriver/inc/CH58x_sys.h:189
200003b0:	fa800693          	li	a3,-88
200003b4:	04d70023          	sb	a3,64(a4)
C:\MRS_DATA\workspace\CH583M\obj/../StdPeriphDriver/inc/CH58x_sys.h:190
200003b8:	0001                	nop
200003ba:	0001                	nop
SetSysClock():
C:\MRS_DATA\workspace\CH583M\obj/../StdPeriphDriver/CH58x_sys.c:37
200003bc:	00a74683          	lbu	a3,10(a4)
200003c0:	0046e693          	ori	a3,a3,4
200003c4:	00d70523          	sb	a3,10(a4)
sys_safe_access_disable():
C:\MRS_DATA\workspace\CH583M\obj/../StdPeriphDriver/inc/CH58x_sys.h:195
200003c8:	04070023          	sb	zero,64(a4)
C:\MRS_DATA\workspace\CH583M\obj/../StdPeriphDriver/inc/CH58x_sys.h:196
200003cc:	800026f3          	csrr	a3,0x800
200003d0:	4398                	lw	a4,0(a5)
200003d2:	8b21                	andi	a4,a4,8
200003d4:	8f55                	or	a4,a4,a3
200003d6:	80071073          	csrw	0x800,a4
C:\MRS_DATA\workspace\CH583M\obj/../StdPeriphDriver/inc/CH58x_sys.h:197
200003da:	8201a223          	sw	zero,-2012(gp) # 20000d04 <IRQ_STA>
C:\MRS_DATA\workspace\CH583M\obj/../StdPeriphDriver/inc/CH58x_sys.h:198
200003de:	0001                	nop
200003e0:	0001                	nop
200003e2:	4b000713          	li	a4,1200
SetSysClock():
C:\MRS_DATA\workspace\CH583M\obj/../StdPeriphDriver/CH58x_sys.c:41 (discriminator 3)
200003e6:	0001                	nop
C:\MRS_DATA\workspace\CH583M\obj/../StdPeriphDriver/CH58x_sys.c:42 (discriminator 3)
200003e8:	0001                	nop
200003ea:	177d                	addi	a4,a4,-1
C:\MRS_DATA\workspace\CH583M\obj/../StdPeriphDriver/CH58x_sys.c:39 (discriminator 3)
200003ec:	ff6d                	bnez	a4,200003e6 <SetSysClock+0xcc>
sys_safe_access_enable():
C:\MRS_DATA\workspace\CH583M\obj/../StdPeriphDriver/inc/CH58x_sys.h:182
200003ee:	80002773          	csrr	a4,0x800
200003f2:	8b21                	andi	a4,a4,8
200003f4:	cb09                	beqz	a4,20000406 <SetSysClock+0xec>
C:\MRS_DATA\workspace\CH583M\obj/../StdPeriphDriver/inc/CH58x_sys.h:184
200003f6:	80002773          	csrr	a4,0x800
200003fa:	82e1a223          	sw	a4,-2012(gp) # 20000d04 <IRQ_STA>
C:\MRS_DATA\workspace\CH583M\obj/../StdPeriphDriver/inc/CH58x_sys.h:185
200003fe:	4398                	lw	a4,0(a5)
20000400:	9b5d                	andi	a4,a4,-9
20000402:	80071073          	csrw	0x800,a4
C:\MRS_DATA\workspace\CH583M\obj/../StdPeriphDriver/inc/CH58x_sys.h:187
20000406:	0001                	nop
20000408:	0001                	nop
C:\MRS_DATA\workspace\CH583M\obj/../StdPeriphDriver/inc/CH58x_sys.h:188
2000040a:	40001737          	lui	a4,0x40001
2000040e:	05700693          	li	a3,87
20000412:	04d70023          	sb	a3,64(a4) # 40001040 <_eusrstack+0x1fff9040>
C:\MRS_DATA\workspace\CH583M\obj/../StdPeriphDriver/inc/CH58x_sys.h:189
20000416:	fa800693          	li	a3,-88
2000041a:	04d70023          	sb	a3,64(a4)
C:\MRS_DATA\workspace\CH583M\obj/../StdPeriphDriver/inc/CH58x_sys.h:190
2000041e:	0001                	nop
20000420:	0001                	nop
SetSysClock():
C:\MRS_DATA\workspace\CH583M\obj/../StdPeriphDriver/CH58x_sys.c:47
20000422:	897d                	andi	a0,a0,31
20000424:	00a71423          	sh	a0,8(a4)
C:\MRS_DATA\workspace\CH583M\obj/../StdPeriphDriver/CH58x_sys.c:48
20000428:	0001                	nop
C:\MRS_DATA\workspace\CH583M\obj/../StdPeriphDriver/CH58x_sys.c:49
2000042a:	0001                	nop
C:\MRS_DATA\workspace\CH583M\obj/../StdPeriphDriver/CH58x_sys.c:50
2000042c:	0001                	nop
C:\MRS_DATA\workspace\CH583M\obj/../StdPeriphDriver/CH58x_sys.c:51
2000042e:	0001                	nop
sys_safe_access_disable():
C:\MRS_DATA\workspace\CH583M\obj/../StdPeriphDriver/inc/CH58x_sys.h:195
20000430:	04070023          	sb	zero,64(a4)
C:\MRS_DATA\workspace\CH583M\obj/../StdPeriphDriver/inc/CH58x_sys.h:196
20000434:	800026f3          	csrr	a3,0x800
20000438:	4398                	lw	a4,0(a5)
2000043a:	8b21                	andi	a4,a4,8
2000043c:	8f55                	or	a4,a4,a3
2000043e:	80071073          	csrw	0x800,a4
C:\MRS_DATA\workspace\CH583M\obj/../StdPeriphDriver/inc/CH58x_sys.h:197
20000442:	8201a223          	sw	zero,-2012(gp) # 20000d04 <IRQ_STA>
C:\MRS_DATA\workspace\CH583M\obj/../StdPeriphDriver/inc/CH58x_sys.h:198
20000446:	0001                	nop
20000448:	0001                	nop
sys_safe_access_enable():
C:\MRS_DATA\workspace\CH583M\obj/../StdPeriphDriver/inc/CH58x_sys.h:182
2000044a:	80002773          	csrr	a4,0x800
2000044e:	8b21                	andi	a4,a4,8
20000450:	cb09                	beqz	a4,20000462 <SetSysClock+0x148>
C:\MRS_DATA\workspace\CH583M\obj/../StdPeriphDriver/inc/CH58x_sys.h:184
20000452:	80002773          	csrr	a4,0x800
20000456:	82e1a223          	sw	a4,-2012(gp) # 20000d04 <IRQ_STA>
C:\MRS_DATA\workspace\CH583M\obj/../StdPeriphDriver/inc/CH58x_sys.h:185
2000045a:	4398                	lw	a4,0(a5)
2000045c:	9b5d                	andi	a4,a4,-9
2000045e:	80071073          	csrw	0x800,a4
C:\MRS_DATA\workspace\CH583M\obj/../StdPeriphDriver/inc/CH58x_sys.h:187
20000462:	0001                	nop
20000464:	0001                	nop
C:\MRS_DATA\workspace\CH583M\obj/../StdPeriphDriver/inc/CH58x_sys.h:188
20000466:	40001737          	lui	a4,0x40001
2000046a:	05700693          	li	a3,87
2000046e:	04d70023          	sb	a3,64(a4) # 40001040 <_eusrstack+0x1fff9040>
C:\MRS_DATA\workspace\CH583M\obj/../StdPeriphDriver/inc/CH58x_sys.h:189
20000472:	fa800693          	li	a3,-88
20000476:	04d70023          	sb	a3,64(a4)
C:\MRS_DATA\workspace\CH583M\obj/../StdPeriphDriver/inc/CH58x_sys.h:190
2000047a:	0001                	nop
2000047c:	0001                	nop
SetSysClock():
C:\MRS_DATA\workspace\CH583M\obj/../StdPeriphDriver/CH58x_sys.c:54
2000047e:	0001                	nop
20000480:	0001                	nop
C:\MRS_DATA\workspace\CH583M\obj/../StdPeriphDriver/CH58x_sys.c:55
20000482:	400026b7          	lui	a3,0x40002
20000486:	05100613          	li	a2,81
C:\MRS_DATA\workspace\CH583M\obj/../StdPeriphDriver/CH58x_sys.c:88
2000048a:	80c683a3          	sb	a2,-2041(a3) # 40001807 <_eusrstack+0x1fff9807>
sys_safe_access_disable():
C:\MRS_DATA\workspace\CH583M\obj/../StdPeriphDriver/inc/CH58x_sys.h:195
2000048e:	04070023          	sb	zero,64(a4)
C:\MRS_DATA\workspace\CH583M\obj/../StdPeriphDriver/inc/CH58x_sys.h:196
20000492:	800026f3          	csrr	a3,0x800
20000496:	4398                	lw	a4,0(a5)
20000498:	8b21                	andi	a4,a4,8
2000049a:	8f55                	or	a4,a4,a3
2000049c:	80071073          	csrw	0x800,a4
C:\MRS_DATA\workspace\CH583M\obj/../StdPeriphDriver/inc/CH58x_sys.h:197
200004a0:	8201a223          	sw	zero,-2012(gp) # 20000d04 <IRQ_STA>
C:\MRS_DATA\workspace\CH583M\obj/../StdPeriphDriver/inc/CH58x_sys.h:198
200004a4:	0001                	nop
200004a6:	0001                	nop
sys_safe_access_enable():
C:\MRS_DATA\workspace\CH583M\obj/../StdPeriphDriver/inc/CH58x_sys.h:182
200004a8:	80002773          	csrr	a4,0x800
200004ac:	8b21                	andi	a4,a4,8
200004ae:	cb09                	beqz	a4,200004c0 <SetSysClock+0x1a6>
C:\MRS_DATA\workspace\CH583M\obj/../StdPeriphDriver/inc/CH58x_sys.h:184
200004b0:	80002773          	csrr	a4,0x800
200004b4:	82e1a223          	sw	a4,-2012(gp) # 20000d04 <IRQ_STA>
C:\MRS_DATA\workspace\CH583M\obj/../StdPeriphDriver/inc/CH58x_sys.h:185
200004b8:	4398                	lw	a4,0(a5)
200004ba:	9b5d                	andi	a4,a4,-9
200004bc:	80071073          	csrw	0x800,a4
C:\MRS_DATA\workspace\CH583M\obj/../StdPeriphDriver/inc/CH58x_sys.h:187
200004c0:	0001                	nop
200004c2:	0001                	nop
C:\MRS_DATA\workspace\CH583M\obj/../StdPeriphDriver/inc/CH58x_sys.h:188
200004c4:	40001737          	lui	a4,0x40001
200004c8:	05700693          	li	a3,87
200004cc:	04d70023          	sb	a3,64(a4) # 40001040 <_eusrstack+0x1fff9040>
C:\MRS_DATA\workspace\CH583M\obj/../StdPeriphDriver/inc/CH58x_sys.h:189
200004d0:	fa800693          	li	a3,-88
200004d4:	04d70023          	sb	a3,64(a4)
C:\MRS_DATA\workspace\CH583M\obj/../StdPeriphDriver/inc/CH58x_sys.h:190
200004d8:	0001                	nop
200004da:	0001                	nop
SetSysClock():
C:\MRS_DATA\workspace\CH583M\obj/../StdPeriphDriver/CH58x_sys.c:100
200004dc:	04b74683          	lbu	a3,75(a4)
200004e0:	0806e693          	ori	a3,a3,128
200004e4:	04d705a3          	sb	a3,75(a4)
sys_safe_access_disable():
C:\MRS_DATA\workspace\CH583M\obj/../StdPeriphDriver/inc/CH58x_sys.h:195
200004e8:	04070023          	sb	zero,64(a4)
C:\MRS_DATA\workspace\CH583M\obj/../StdPeriphDriver/inc/CH58x_sys.h:196
200004ec:	80002773          	csrr	a4,0x800
200004f0:	439c                	lw	a5,0(a5)
200004f2:	8ba1                	andi	a5,a5,8
200004f4:	8fd9                	or	a5,a5,a4
200004f6:	80079073          	csrw	0x800,a5
C:\MRS_DATA\workspace\CH583M\obj/../StdPeriphDriver/inc/CH58x_sys.h:197
200004fa:	8201a223          	sw	zero,-2012(gp) # 20000d04 <IRQ_STA>
C:\MRS_DATA\workspace\CH583M\obj/../StdPeriphDriver/inc/CH58x_sys.h:198
200004fe:	0001                	nop
20000500:	0001                	nop
SetSysClock():
C:\MRS_DATA\workspace\CH583M\obj/../StdPeriphDriver/CH58x_sys.c:102
20000502:	8082                	ret
C:\MRS_DATA\workspace\CH583M\obj/../StdPeriphDriver/CH58x_sys.c:59
20000504:	04057693          	andi	a3,a0,64
20000508:	14068b63          	beqz	a3,2000065e <SetSysClock+0x344>
C:\MRS_DATA\workspace\CH583M\obj/../StdPeriphDriver/CH58x_sys.c:61
2000050c:	00a74703          	lbu	a4,10(a4)
20000510:	8b41                	andi	a4,a4,16
20000512:	e725                	bnez	a4,2000057a <SetSysClock+0x260>
sys_safe_access_enable():
C:\MRS_DATA\workspace\CH583M\obj/../StdPeriphDriver/inc/CH58x_sys.h:182
20000514:	80002773          	csrr	a4,0x800
20000518:	8b21                	andi	a4,a4,8
2000051a:	cb09                	beqz	a4,2000052c <SetSysClock+0x212>
C:\MRS_DATA\workspace\CH583M\obj/../StdPeriphDriver/inc/CH58x_sys.h:184
2000051c:	80002773          	csrr	a4,0x800
20000520:	82e1a223          	sw	a4,-2012(gp) # 20000d04 <IRQ_STA>
C:\MRS_DATA\workspace\CH583M\obj/../StdPeriphDriver/inc/CH58x_sys.h:185
20000524:	4398                	lw	a4,0(a5)
20000526:	9b5d                	andi	a4,a4,-9
20000528:	80071073          	csrw	0x800,a4
C:\MRS_DATA\workspace\CH583M\obj/../StdPeriphDriver/inc/CH58x_sys.h:187
2000052c:	0001                	nop
2000052e:	0001                	nop
C:\MRS_DATA\workspace\CH583M\obj/../StdPeriphDriver/inc/CH58x_sys.h:188
20000530:	40001737          	lui	a4,0x40001
20000534:	05700693          	li	a3,87
20000538:	04d70023          	sb	a3,64(a4) # 40001040 <_eusrstack+0x1fff9040>
C:\MRS_DATA\workspace\CH583M\obj/../StdPeriphDriver/inc/CH58x_sys.h:189
2000053c:	fa800693          	li	a3,-88
20000540:	04d70023          	sb	a3,64(a4)
C:\MRS_DATA\workspace\CH583M\obj/../StdPeriphDriver/inc/CH58x_sys.h:190
20000544:	0001                	nop
20000546:	0001                	nop
SetSysClock():
C:\MRS_DATA\workspace\CH583M\obj/../StdPeriphDriver/CH58x_sys.c:64
20000548:	00a74683          	lbu	a3,10(a4)
2000054c:	0106e693          	ori	a3,a3,16
20000550:	00d70523          	sb	a3,10(a4)
sys_safe_access_disable():
C:\MRS_DATA\workspace\CH583M\obj/../StdPeriphDriver/inc/CH58x_sys.h:195
20000554:	04070023          	sb	zero,64(a4)
C:\MRS_DATA\workspace\CH583M\obj/../StdPeriphDriver/inc/CH58x_sys.h:196
20000558:	800026f3          	csrr	a3,0x800
2000055c:	4398                	lw	a4,0(a5)
2000055e:	8b21                	andi	a4,a4,8
20000560:	8f55                	or	a4,a4,a3
20000562:	80071073          	csrw	0x800,a4
C:\MRS_DATA\workspace\CH583M\obj/../StdPeriphDriver/inc/CH58x_sys.h:197
20000566:	8201a223          	sw	zero,-2012(gp) # 20000d04 <IRQ_STA>
C:\MRS_DATA\workspace\CH583M\obj/../StdPeriphDriver/inc/CH58x_sys.h:198
2000056a:	0001                	nop
2000056c:	0001                	nop
2000056e:	7d000713          	li	a4,2000
SetSysClock():
C:\MRS_DATA\workspace\CH583M\obj/../StdPeriphDriver/CH58x_sys.c:68 (discriminator 3)
20000572:	0001                	nop
C:\MRS_DATA\workspace\CH583M\obj/../StdPeriphDriver/CH58x_sys.c:69 (discriminator 3)
20000574:	0001                	nop
20000576:	177d                	addi	a4,a4,-1
C:\MRS_DATA\workspace\CH583M\obj/../StdPeriphDriver/CH58x_sys.c:66 (discriminator 3)
20000578:	ff6d                	bnez	a4,20000572 <SetSysClock+0x258>
sys_safe_access_enable():
C:\MRS_DATA\workspace\CH583M\obj/../StdPeriphDriver/inc/CH58x_sys.h:182
2000057a:	80002773          	csrr	a4,0x800
2000057e:	8b21                	andi	a4,a4,8
20000580:	cb09                	beqz	a4,20000592 <SetSysClock+0x278>
C:\MRS_DATA\workspace\CH583M\obj/../StdPeriphDriver/inc/CH58x_sys.h:184
20000582:	80002773          	csrr	a4,0x800
20000586:	82e1a223          	sw	a4,-2012(gp) # 20000d04 <IRQ_STA>
C:\MRS_DATA\workspace\CH583M\obj/../StdPeriphDriver/inc/CH58x_sys.h:185
2000058a:	4398                	lw	a4,0(a5)
2000058c:	9b5d                	andi	a4,a4,-9
2000058e:	80071073          	csrw	0x800,a4
C:\MRS_DATA\workspace\CH583M\obj/../StdPeriphDriver/inc/CH58x_sys.h:187
20000592:	0001                	nop
20000594:	0001                	nop
C:\MRS_DATA\workspace\CH583M\obj/../StdPeriphDriver/inc/CH58x_sys.h:188
20000596:	40001737          	lui	a4,0x40001
2000059a:	05700693          	li	a3,87
2000059e:	04d70023          	sb	a3,64(a4) # 40001040 <_eusrstack+0x1fff9040>
C:\MRS_DATA\workspace\CH583M\obj/../StdPeriphDriver/inc/CH58x_sys.h:189
200005a2:	fa800693          	li	a3,-88
200005a6:	04d70023          	sb	a3,64(a4)
C:\MRS_DATA\workspace\CH583M\obj/../StdPeriphDriver/inc/CH58x_sys.h:190
200005aa:	0001                	nop
200005ac:	0001                	nop
SetSysClock():
C:\MRS_DATA\workspace\CH583M\obj/../StdPeriphDriver/CH58x_sys.c:73
200005ae:	01f57693          	andi	a3,a0,31
200005b2:	0406e693          	ori	a3,a3,64
200005b6:	00d71423          	sh	a3,8(a4)
C:\MRS_DATA\workspace\CH583M\obj/../StdPeriphDriver/CH58x_sys.c:74
200005ba:	0001                	nop
C:\MRS_DATA\workspace\CH583M\obj/../StdPeriphDriver/CH58x_sys.c:75
200005bc:	0001                	nop
C:\MRS_DATA\workspace\CH583M\obj/../StdPeriphDriver/CH58x_sys.c:76
200005be:	0001                	nop
C:\MRS_DATA\workspace\CH583M\obj/../StdPeriphDriver/CH58x_sys.c:77
200005c0:	0001                	nop
sys_safe_access_disable():
C:\MRS_DATA\workspace\CH583M\obj/../StdPeriphDriver/inc/CH58x_sys.h:195
200005c2:	04070023          	sb	zero,64(a4)
C:\MRS_DATA\workspace\CH583M\obj/../StdPeriphDriver/inc/CH58x_sys.h:196
200005c6:	800026f3          	csrr	a3,0x800
200005ca:	4398                	lw	a4,0(a5)
200005cc:	8b21                	andi	a4,a4,8
200005ce:	8f55                	or	a4,a4,a3
200005d0:	80071073          	csrw	0x800,a4
C:\MRS_DATA\workspace\CH583M\obj/../StdPeriphDriver/inc/CH58x_sys.h:197
200005d4:	8201a223          	sw	zero,-2012(gp) # 20000d04 <IRQ_STA>
C:\MRS_DATA\workspace\CH583M\obj/../StdPeriphDriver/inc/CH58x_sys.h:198
200005d8:	0001                	nop
200005da:	0001                	nop
SetSysClock():
C:\MRS_DATA\workspace\CH583M\obj/../StdPeriphDriver/CH58x_sys.c:79
200005dc:	04600713          	li	a4,70
200005e0:	04e51063          	bne	a0,a4,20000620 <SetSysClock+0x306>
sys_safe_access_enable():
C:\MRS_DATA\workspace\CH583M\obj/../StdPeriphDriver/inc/CH58x_sys.h:182
200005e4:	80002773          	csrr	a4,0x800
200005e8:	8b21                	andi	a4,a4,8
200005ea:	cb09                	beqz	a4,200005fc <SetSysClock+0x2e2>
C:\MRS_DATA\workspace\CH583M\obj/../StdPeriphDriver/inc/CH58x_sys.h:184
200005ec:	80002773          	csrr	a4,0x800
200005f0:	82e1a223          	sw	a4,-2012(gp) # 20000d04 <IRQ_STA>
C:\MRS_DATA\workspace\CH583M\obj/../StdPeriphDriver/inc/CH58x_sys.h:185
200005f4:	4398                	lw	a4,0(a5)
200005f6:	9b5d                	andi	a4,a4,-9
200005f8:	80071073          	csrw	0x800,a4
C:\MRS_DATA\workspace\CH583M\obj/../StdPeriphDriver/inc/CH58x_sys.h:187
200005fc:	0001                	nop
200005fe:	0001                	nop
C:\MRS_DATA\workspace\CH583M\obj/../StdPeriphDriver/inc/CH58x_sys.h:188
20000600:	40001737          	lui	a4,0x40001
20000604:	05700693          	li	a3,87
20000608:	04d70023          	sb	a3,64(a4) # 40001040 <_eusrstack+0x1fff9040>
C:\MRS_DATA\workspace\CH583M\obj/../StdPeriphDriver/inc/CH58x_sys.h:189
2000060c:	fa800693          	li	a3,-88
20000610:	04d70023          	sb	a3,64(a4)
C:\MRS_DATA\workspace\CH583M\obj/../StdPeriphDriver/inc/CH58x_sys.h:190
20000614:	0001                	nop
20000616:	0001                	nop
SetSysClock():
C:\MRS_DATA\workspace\CH583M\obj/../StdPeriphDriver/CH58x_sys.c:82
20000618:	400026b7          	lui	a3,0x40002
2000061c:	4609                	li	a2,2
2000061e:	b5b5                	j	2000048a <SetSysClock+0x170>
sys_safe_access_enable():
C:\MRS_DATA\workspace\CH583M\obj/../StdPeriphDriver/inc/CH58x_sys.h:182
20000620:	80002773          	csrr	a4,0x800
20000624:	8b21                	andi	a4,a4,8
20000626:	cb09                	beqz	a4,20000638 <SetSysClock+0x31e>
C:\MRS_DATA\workspace\CH583M\obj/../StdPeriphDriver/inc/CH58x_sys.h:184
20000628:	80002773          	csrr	a4,0x800
2000062c:	82e1a223          	sw	a4,-2012(gp) # 20000d04 <IRQ_STA>
C:\MRS_DATA\workspace\CH583M\obj/../StdPeriphDriver/inc/CH58x_sys.h:185
20000630:	4398                	lw	a4,0(a5)
20000632:	9b5d                	andi	a4,a4,-9
20000634:	80071073          	csrw	0x800,a4
C:\MRS_DATA\workspace\CH583M\obj/../StdPeriphDriver/inc/CH58x_sys.h:187
20000638:	0001                	nop
2000063a:	0001                	nop
C:\MRS_DATA\workspace\CH583M\obj/../StdPeriphDriver/inc/CH58x_sys.h:188
2000063c:	40001737          	lui	a4,0x40001
20000640:	05700693          	li	a3,87
20000644:	04d70023          	sb	a3,64(a4) # 40001040 <_eusrstack+0x1fff9040>
C:\MRS_DATA\workspace\CH583M\obj/../StdPeriphDriver/inc/CH58x_sys.h:189
20000648:	fa800693          	li	a3,-88
2000064c:	04d70023          	sb	a3,64(a4)
C:\MRS_DATA\workspace\CH583M\obj/../StdPeriphDriver/inc/CH58x_sys.h:190
20000650:	0001                	nop
20000652:	0001                	nop
SetSysClock():
C:\MRS_DATA\workspace\CH583M\obj/../StdPeriphDriver/CH58x_sys.c:88
20000654:	400026b7          	lui	a3,0x40002
20000658:	05200613          	li	a2,82
2000065c:	b53d                	j	2000048a <SetSysClock+0x170>
sys_safe_access_enable():
C:\MRS_DATA\workspace\CH583M\obj/../StdPeriphDriver/inc/CH58x_sys.h:182
2000065e:	80002773          	csrr	a4,0x800
20000662:	8b21                	andi	a4,a4,8
20000664:	cb09                	beqz	a4,20000676 <SetSysClock+0x35c>
C:\MRS_DATA\workspace\CH583M\obj/../StdPeriphDriver/inc/CH58x_sys.h:184
20000666:	80002773          	csrr	a4,0x800
2000066a:	82e1a223          	sw	a4,-2012(gp) # 20000d04 <IRQ_STA>
C:\MRS_DATA\workspace\CH583M\obj/../StdPeriphDriver/inc/CH58x_sys.h:185
2000066e:	4398                	lw	a4,0(a5)
20000670:	9b5d                	andi	a4,a4,-9
20000672:	80071073          	csrw	0x800,a4
C:\MRS_DATA\workspace\CH583M\obj/../StdPeriphDriver/inc/CH58x_sys.h:187
20000676:	0001                	nop
20000678:	0001                	nop
C:\MRS_DATA\workspace\CH583M\obj/../StdPeriphDriver/inc/CH58x_sys.h:188
2000067a:	40001737          	lui	a4,0x40001
2000067e:	05700693          	li	a3,87
20000682:	04d70023          	sb	a3,64(a4) # 40001040 <_eusrstack+0x1fff9040>
C:\MRS_DATA\workspace\CH583M\obj/../StdPeriphDriver/inc/CH58x_sys.h:189
20000686:	fa800693          	li	a3,-88
2000068a:	04d70023          	sb	a3,64(a4)
C:\MRS_DATA\workspace\CH583M\obj/../StdPeriphDriver/inc/CH58x_sys.h:190
2000068e:	0001                	nop
20000690:	0001                	nop
SetSysClock():
C:\MRS_DATA\workspace\CH583M\obj/../StdPeriphDriver/CH58x_sys.c:95
20000692:	00875683          	lhu	a3,8(a4)
20000696:	0c06e693          	ori	a3,a3,192
2000069a:	00d71423          	sh	a3,8(a4)
2000069e:	bbc5                	j	2000048e <SetSysClock+0x174>

200006a0 <SYS_ResetExecute>:
SYS_ResetExecute():
C:\MRS_DATA\workspace\CH583M\obj/../StdPeriphDriver/CH58x_sys.c:164
200006a0:	1141                	addi	sp,sp,-16
C:\MRS_DATA\workspace\CH583M\obj/../StdPeriphDriver/CH58x_sys.c:165
200006a2:	4681                	li	a3,0
200006a4:	4601                	li	a2,0
200006a6:	4581                	li	a1,0
200006a8:	4511                	li	a0,4
C:\MRS_DATA\workspace\CH583M\obj/../StdPeriphDriver/CH58x_sys.c:164
200006aa:	c606                	sw	ra,12(sp)
C:\MRS_DATA\workspace\CH583M\obj/../StdPeriphDriver/CH58x_sys.c:165
200006ac:	2c19                	jal	200008c2 <FLASH_EEPROM_CMD>
sys_safe_access_enable():
C:\MRS_DATA\workspace\CH583M\obj/../StdPeriphDriver/inc/CH58x_sys.h:182
200006ae:	800027f3          	csrr	a5,0x800
200006b2:	8ba1                	andi	a5,a5,8
200006b4:	82418693          	addi	a3,gp,-2012 # 20000d04 <IRQ_STA>
200006b8:	cb89                	beqz	a5,200006ca <SYS_ResetExecute+0x2a>
C:\MRS_DATA\workspace\CH583M\obj/../StdPeriphDriver/inc/CH58x_sys.h:184
200006ba:	800027f3          	csrr	a5,0x800
200006be:	82f1a223          	sw	a5,-2012(gp) # 20000d04 <IRQ_STA>
C:\MRS_DATA\workspace\CH583M\obj/../StdPeriphDriver/inc/CH58x_sys.h:185
200006c2:	429c                	lw	a5,0(a3)
200006c4:	9bdd                	andi	a5,a5,-9
200006c6:	80079073          	csrw	0x800,a5
C:\MRS_DATA\workspace\CH583M\obj/../StdPeriphDriver/inc/CH58x_sys.h:187
200006ca:	0001                	nop
200006cc:	0001                	nop
C:\MRS_DATA\workspace\CH583M\obj/../StdPeriphDriver/inc/CH58x_sys.h:188
200006ce:	400017b7          	lui	a5,0x40001
200006d2:	05700713          	li	a4,87
200006d6:	04e78023          	sb	a4,64(a5) # 40001040 <_eusrstack+0x1fff9040>
C:\MRS_DATA\workspace\CH583M\obj/../StdPeriphDriver/inc/CH58x_sys.h:189
200006da:	fa800713          	li	a4,-88
200006de:	04e78023          	sb	a4,64(a5)
C:\MRS_DATA\workspace\CH583M\obj/../StdPeriphDriver/inc/CH58x_sys.h:190
200006e2:	0001                	nop
200006e4:	0001                	nop
SYS_ResetExecute():
C:\MRS_DATA\workspace\CH583M\obj/../StdPeriphDriver/CH58x_sys.c:167
200006e6:	0467c703          	lbu	a4,70(a5)
200006ea:	00176713          	ori	a4,a4,1
200006ee:	04e78323          	sb	a4,70(a5)
sys_safe_access_disable():
C:\MRS_DATA\workspace\CH583M\obj/../StdPeriphDriver/inc/CH58x_sys.h:195
200006f2:	04078023          	sb	zero,64(a5)
C:\MRS_DATA\workspace\CH583M\obj/../StdPeriphDriver/inc/CH58x_sys.h:196
200006f6:	80002773          	csrr	a4,0x800
200006fa:	429c                	lw	a5,0(a3)
200006fc:	8ba1                	andi	a5,a5,8
200006fe:	8fd9                	or	a5,a5,a4
20000700:	80079073          	csrw	0x800,a5
C:\MRS_DATA\workspace\CH583M\obj/../StdPeriphDriver/inc/CH58x_sys.h:197
20000704:	8201a223          	sw	zero,-2012(gp) # 20000d04 <IRQ_STA>
C:\MRS_DATA\workspace\CH583M\obj/../StdPeriphDriver/inc/CH58x_sys.h:198
20000708:	0001                	nop
2000070a:	0001                	nop
SYS_ResetExecute():
C:\MRS_DATA\workspace\CH583M\obj/../StdPeriphDriver/CH58x_sys.c:169
2000070c:	40b2                	lw	ra,12(sp)
2000070e:	0141                	addi	sp,sp,16
20000710:	8082                	ret

20000712 <HardFault_Handler>:
HardFault_Handler():
C:\MRS_DATA\workspace\CH583M\obj/../StdPeriphDriver/CH58x_sys.c:303
20000712:	4681                	li	a3,0
20000714:	4601                	li	a2,0
20000716:	4581                	li	a1,0
20000718:	4511                	li	a0,4
2000071a:	2265                	jal	200008c2 <FLASH_EEPROM_CMD>
sys_safe_access_enable():
C:\MRS_DATA\workspace\CH583M\obj/../StdPeriphDriver/inc/CH58x_sys.h:182
2000071c:	800027f3          	csrr	a5,0x800
20000720:	8ba1                	andi	a5,a5,8
20000722:	82418713          	addi	a4,gp,-2012 # 20000d04 <IRQ_STA>
20000726:	cb89                	beqz	a5,20000738 <HardFault_Handler+0x26>
C:\MRS_DATA\workspace\CH583M\obj/../StdPeriphDriver/inc/CH58x_sys.h:184
20000728:	800027f3          	csrr	a5,0x800
2000072c:	82f1a223          	sw	a5,-2012(gp) # 20000d04 <IRQ_STA>
C:\MRS_DATA\workspace\CH583M\obj/../StdPeriphDriver/inc/CH58x_sys.h:185
20000730:	431c                	lw	a5,0(a4)
20000732:	9bdd                	andi	a5,a5,-9
20000734:	80079073          	csrw	0x800,a5
C:\MRS_DATA\workspace\CH583M\obj/../StdPeriphDriver/inc/CH58x_sys.h:187
20000738:	0001                	nop
2000073a:	0001                	nop
C:\MRS_DATA\workspace\CH583M\obj/../StdPeriphDriver/inc/CH58x_sys.h:188
2000073c:	400017b7          	lui	a5,0x40001
20000740:	05700693          	li	a3,87
20000744:	04d78023          	sb	a3,64(a5) # 40001040 <_eusrstack+0x1fff9040>
C:\MRS_DATA\workspace\CH583M\obj/../StdPeriphDriver/inc/CH58x_sys.h:189
20000748:	fa800693          	li	a3,-88
2000074c:	04d78023          	sb	a3,64(a5)
C:\MRS_DATA\workspace\CH583M\obj/../StdPeriphDriver/inc/CH58x_sys.h:190
20000750:	0001                	nop
20000752:	0001                	nop
HardFault_Handler():
C:\MRS_DATA\workspace\CH583M\obj/../StdPeriphDriver/CH58x_sys.c:305
20000754:	56fd                	li	a3,-1
20000756:	02d79623          	sh	a3,44(a5)
sys_safe_access_disable():
C:\MRS_DATA\workspace\CH583M\obj/../StdPeriphDriver/inc/CH58x_sys.h:195
2000075a:	04078023          	sb	zero,64(a5)
C:\MRS_DATA\workspace\CH583M\obj/../StdPeriphDriver/inc/CH58x_sys.h:196
2000075e:	800026f3          	csrr	a3,0x800
20000762:	431c                	lw	a5,0(a4)
20000764:	8ba1                	andi	a5,a5,8
20000766:	8fd5                	or	a5,a5,a3
20000768:	80079073          	csrw	0x800,a5
C:\MRS_DATA\workspace\CH583M\obj/../StdPeriphDriver/inc/CH58x_sys.h:197
2000076c:	8201a223          	sw	zero,-2012(gp) # 20000d04 <IRQ_STA>
C:\MRS_DATA\workspace\CH583M\obj/../StdPeriphDriver/inc/CH58x_sys.h:198
20000770:	0001                	nop
20000772:	0001                	nop
sys_safe_access_enable():
C:\MRS_DATA\workspace\CH583M\obj/../StdPeriphDriver/inc/CH58x_sys.h:182
20000774:	800027f3          	csrr	a5,0x800
20000778:	8ba1                	andi	a5,a5,8
2000077a:	cb89                	beqz	a5,2000078c <HardFault_Handler+0x7a>
C:\MRS_DATA\workspace\CH583M\obj/../StdPeriphDriver/inc/CH58x_sys.h:184
2000077c:	800027f3          	csrr	a5,0x800
20000780:	82f1a223          	sw	a5,-2012(gp) # 20000d04 <IRQ_STA>
C:\MRS_DATA\workspace\CH583M\obj/../StdPeriphDriver/inc/CH58x_sys.h:185
20000784:	431c                	lw	a5,0(a4)
20000786:	9bdd                	andi	a5,a5,-9
20000788:	80079073          	csrw	0x800,a5
C:\MRS_DATA\workspace\CH583M\obj/../StdPeriphDriver/inc/CH58x_sys.h:187
2000078c:	0001                	nop
2000078e:	0001                	nop
C:\MRS_DATA\workspace\CH583M\obj/../StdPeriphDriver/inc/CH58x_sys.h:188
20000790:	400017b7          	lui	a5,0x40001
20000794:	05700693          	li	a3,87
20000798:	04d78023          	sb	a3,64(a5) # 40001040 <_eusrstack+0x1fff9040>
C:\MRS_DATA\workspace\CH583M\obj/../StdPeriphDriver/inc/CH58x_sys.h:189
2000079c:	fa800693          	li	a3,-88
200007a0:	04d78023          	sb	a3,64(a5)
C:\MRS_DATA\workspace\CH583M\obj/../StdPeriphDriver/inc/CH58x_sys.h:190
200007a4:	0001                	nop
200007a6:	0001                	nop
HardFault_Handler():
C:\MRS_DATA\workspace\CH583M\obj/../StdPeriphDriver/CH58x_sys.c:308
200007a8:	0467c683          	lbu	a3,70(a5)
200007ac:	0016e693          	ori	a3,a3,1
200007b0:	04d78323          	sb	a3,70(a5)
sys_safe_access_disable():
C:\MRS_DATA\workspace\CH583M\obj/../StdPeriphDriver/inc/CH58x_sys.h:195
200007b4:	04078023          	sb	zero,64(a5)
C:\MRS_DATA\workspace\CH583M\obj/../StdPeriphDriver/inc/CH58x_sys.h:196
200007b8:	800026f3          	csrr	a3,0x800
200007bc:	431c                	lw	a5,0(a4)
200007be:	8ba1                	andi	a5,a5,8
200007c0:	8fd5                	or	a5,a5,a3
200007c2:	80079073          	csrw	0x800,a5
C:\MRS_DATA\workspace\CH583M\obj/../StdPeriphDriver/inc/CH58x_sys.h:197
200007c6:	8201a223          	sw	zero,-2012(gp) # 20000d04 <IRQ_STA>
C:\MRS_DATA\workspace\CH583M\obj/../StdPeriphDriver/inc/CH58x_sys.h:198
200007ca:	0001                	nop
200007cc:	0001                	nop
HardFault_Handler():
C:\MRS_DATA\workspace\CH583M\obj/../StdPeriphDriver/CH58x_sys.c:310 (discriminator 1)
200007ce:	a001                	j	200007ce <HardFault_Handler+0xbc>

200007d0 <mDelayuS>:
mDelayuS():
C:\MRS_DATA\workspace\CH583M\obj/../StdPeriphDriver/CH58x_sys.c:329
200007d0:	47bd                	li	a5,15
200007d2:	02f50533          	mul	a0,a0,a5
C:\MRS_DATA\workspace\CH583M\obj/../StdPeriphDriver/CH58x_sys.c:353 (discriminator 1)
200007d6:	0001                	nop
C:\MRS_DATA\workspace\CH583M\obj/../StdPeriphDriver/CH58x_sys.c:354 (discriminator 1)
200007d8:	157d                	addi	a0,a0,-1
200007da:	fd75                	bnez	a0,200007d6 <mDelayuS+0x6>
C:\MRS_DATA\workspace\CH583M\obj/../StdPeriphDriver/CH58x_sys.c:355
200007dc:	8082                	ret

200007de <mDelaymS>:
mDelaymS():
C:\MRS_DATA\workspace\CH583M\obj/../StdPeriphDriver/CH58x_sys.c:368
200007de:	1141                	addi	sp,sp,-16
200007e0:	c422                	sw	s0,8(sp)
200007e2:	c226                	sw	s1,4(sp)
200007e4:	c606                	sw	ra,12(sp)
200007e6:	84aa                	mv	s1,a0
C:\MRS_DATA\workspace\CH583M\obj/../StdPeriphDriver/CH58x_sys.c:371
200007e8:	4401                	li	s0,0
C:\MRS_DATA\workspace\CH583M\obj/../StdPeriphDriver/CH58x_sys.c:371 (discriminator 1)
200007ea:	00941763          	bne	s0,s1,200007f8 <mDelaymS+0x1a>
C:\MRS_DATA\workspace\CH583M\obj/../StdPeriphDriver/CH58x_sys.c:375
200007ee:	40b2                	lw	ra,12(sp)
200007f0:	4422                	lw	s0,8(sp)
200007f2:	4492                	lw	s1,4(sp)
200007f4:	0141                	addi	sp,sp,16
200007f6:	8082                	ret
C:\MRS_DATA\workspace\CH583M\obj/../StdPeriphDriver/CH58x_sys.c:371 (discriminator 3)
200007f8:	0405                	addi	s0,s0,1
C:\MRS_DATA\workspace\CH583M\obj/../StdPeriphDriver/CH58x_sys.c:373 (discriminator 3)
200007fa:	3e800513          	li	a0,1000
C:\MRS_DATA\workspace\CH583M\obj/../StdPeriphDriver/CH58x_sys.c:371 (discriminator 3)
200007fe:	0442                	slli	s0,s0,0x10
C:\MRS_DATA\workspace\CH583M\obj/../StdPeriphDriver/CH58x_sys.c:373 (discriminator 3)
20000800:	3fc1                	jal	200007d0 <mDelayuS>
C:\MRS_DATA\workspace\CH583M\obj/../StdPeriphDriver/CH58x_sys.c:371 (discriminator 3)
20000802:	8041                	srli	s0,s0,0x10
20000804:	b7dd                	j	200007ea <mDelaymS+0xc>

20000806 <FLASH_ROM_BEG>:
FLASH_ROM_BEG():
20000806:	80040323          	sb	zero,-2042(s0)
2000080a:	4715                	li	a4,5
2000080c:	80e40323          	sb	a4,-2042(s0)
20000810:	0001                	nop
20000812:	80a40223          	sb	a0,-2044(s0)
20000816:	8082                	ret

20000818 <FLASH_ROM_END>:
FLASH_ROM_END():
20000818:	80640783          	lb	a5,-2042(s0)
2000081c:	fe07cee3          	bltz	a5,20000818 <FLASH_ROM_END>
20000820:	80040323          	sb	zero,-2042(s0)
20000824:	8082                	ret

20000826 <FLASH_ROM_IN>:
FLASH_ROM_IN():
20000826:	80640783          	lb	a5,-2042(s0)
2000082a:	fe07cee3          	bltz	a5,20000826 <FLASH_ROM_IN>
2000082e:	80444503          	lbu	a0,-2044(s0)
20000832:	8082                	ret

20000834 <FLASH_ROM_OUT>:
FLASH_ROM_OUT():
20000834:	80640783          	lb	a5,-2042(s0)
20000838:	fe07cee3          	bltz	a5,20000834 <FLASH_ROM_OUT>
2000083c:	80a40223          	sb	a0,-2044(s0)
20000840:	8082                	ret

20000842 <FLASH_ROM_ADDR>:
FLASH_ROM_ADDR():
20000842:	1141                	addi	sp,sp,-16
20000844:	c426                	sw	s1,8(sp)
20000846:	c24a                	sw	s2,4(sp)
20000848:	c04e                	sw	s3,0(sp)
2000084a:	c606                	sw	ra,12(sp)
2000084c:	0bf57713          	andi	a4,a0,191
20000850:	47ad                	li	a5,11
20000852:	89aa                	mv	s3,a0
20000854:	892e                	mv	s2,a1
20000856:	4495                	li	s1,5
20000858:	00f70663          	beq	a4,a5,20000864 <FLASH_ROM_ADDR+0x22>
2000085c:	4519                	li	a0,6
2000085e:	3765                	jal	20000806 <FLASH_ROM_BEG>
20000860:	3f65                	jal	20000818 <FLASH_ROM_END>
20000862:	448d                	li	s1,3
20000864:	854e                	mv	a0,s3
20000866:	3745                	jal	20000806 <FLASH_ROM_BEG>
20000868:	59fd                	li	s3,-1
2000086a:	14fd                	addi	s1,s1,-1
2000086c:	01349863          	bne	s1,s3,2000087c <FLASH_ROM_ADDR+0x3a>
20000870:	40b2                	lw	ra,12(sp)
20000872:	44a2                	lw	s1,8(sp)
20000874:	4912                	lw	s2,4(sp)
20000876:	4982                	lw	s3,0(sp)
20000878:	0141                	addi	sp,sp,16
2000087a:	8082                	ret
2000087c:	01095513          	srli	a0,s2,0x10
20000880:	0ff57513          	andi	a0,a0,255
20000884:	3f45                	jal	20000834 <FLASH_ROM_OUT>
20000886:	0922                	slli	s2,s2,0x8
20000888:	b7cd                	j	2000086a <FLASH_ROM_ADDR+0x28>

2000088a <FLASH_ROM_WAIT>:
FLASH_ROM_WAIT():
2000088a:	1101                	addi	sp,sp,-32
2000088c:	cc26                	sw	s1,24(sp)
2000088e:	ce06                	sw	ra,28(sp)
20000890:	000804b7          	lui	s1,0x80
20000894:	3751                	jal	20000818 <FLASH_ROM_END>
20000896:	4515                	li	a0,5
20000898:	37bd                	jal	20000806 <FLASH_ROM_BEG>
2000089a:	3771                	jal	20000826 <FLASH_ROM_IN>
2000089c:	3769                	jal	20000826 <FLASH_ROM_IN>
2000089e:	c62a                	sw	a0,12(sp)
200008a0:	3fa5                	jal	20000818 <FLASH_ROM_END>
200008a2:	4532                	lw	a0,12(sp)
200008a4:	00157793          	andi	a5,a0,1
200008a8:	eb89                	bnez	a5,200008ba <FLASH_ROM_WAIT+0x30>
200008aa:	00156513          	ori	a0,a0,1
200008ae:	0ff57513          	andi	a0,a0,255
200008b2:	40f2                	lw	ra,28(sp)
200008b4:	44e2                	lw	s1,24(sp)
200008b6:	6105                	addi	sp,sp,32
200008b8:	8082                	ret
200008ba:	14fd                	addi	s1,s1,-1
200008bc:	fce9                	bnez	s1,20000896 <FLASH_ROM_WAIT+0xc>
200008be:	4501                	li	a0,0
200008c0:	bfcd                	j	200008b2 <FLASH_ROM_WAIT+0x28>

200008c2 <FLASH_EEPROM_CMD>:
FLASH_EEPROM_CMD():
200008c2:	7139                	addi	sp,sp,-64
200008c4:	dc26                	sw	s1,56(sp)
200008c6:	da4a                	sw	s2,52(sp)
200008c8:	d84e                	sw	s3,48(sp)
200008ca:	d652                	sw	s4,44(sp)
200008cc:	d456                	sw	s5,40(sp)
200008ce:	d25a                	sw	s6,36(sp)
200008d0:	d05e                	sw	s7,32(sp)
200008d2:	de06                	sw	ra,60(sp)
200008d4:	ce62                	sw	s8,28(sp)
200008d6:	cc66                	sw	s9,24(sp)
200008d8:	e000e7b7          	lui	a5,0xe000e
200008dc:	577d                	li	a4,-1
200008de:	0007aa83          	lw	s5,0(a5) # e000e000 <_eusrstack+0xc0006000>
200008e2:	c622                	sw	s0,12(sp)
200008e4:	0047aa03          	lw	s4,4(a5)
200008e8:	18e7a023          	sw	a4,384(a5)
200008ec:	18e7a223          	sw	a4,388(a5)
200008f0:	400017b7          	lui	a5,0x40001
200008f4:	05700713          	li	a4,87
200008f8:	04e78023          	sb	a4,64(a5) # 40001040 <_eusrstack+0x1fff9040>
200008fc:	fa800713          	li	a4,-88
20000900:	04e78023          	sb	a4,64(a5)
20000904:	0447c783          	lbu	a5,68(a5)
20000908:	ff750b93          	addi	s7,a0,-9
2000090c:	84b6                	mv	s1,a3
2000090e:	07e2                	slli	a5,a5,0x18
20000910:	0ffbfb93          	andi	s7,s7,255
20000914:	4685                	li	a3,1
20000916:	89aa                	mv	s3,a0
20000918:	8b2e                	mv	s6,a1
2000091a:	8932                	mv	s2,a2
2000091c:	40002437          	lui	s0,0x40002
20000920:	87e1                	srai	a5,a5,0x18
20000922:	5701                	li	a4,-32
20000924:	0176fa63          	bgeu	a3,s7,20000938 <FLASH_EEPROM_CMD+0x76>
20000928:	00d50863          	beq	a0,a3,20000938 <FLASH_EEPROM_CMD+0x76>
2000092c:	4689                	li	a3,2
2000092e:	02000713          	li	a4,32
20000932:	00d51363          	bne	a0,a3,20000938 <FLASH_EEPROM_CMD+0x76>
20000936:	5701                	li	a4,-32
20000938:	8fd9                	or	a5,a5,a4
2000093a:	0ff7f793          	andi	a5,a5,255
2000093e:	40001cb7          	lui	s9,0x40001
20000942:	04fc8223          	sb	a5,68(s9) # 40001044 <_eusrstack+0x1fff9044>
20000946:	4711                	li	a4,4
20000948:	80e40323          	sb	a4,-2042(s0) # 40001806 <_eusrstack+0x1fff9806>
2000094c:	0ff00513          	li	a0,255
20000950:	3d5d                	jal	20000806 <FLASH_ROM_BEG>
20000952:	4c09                	li	s8,2
20000954:	35d1                	jal	20000818 <FLASH_ROM_END>
20000956:	117c6d63          	bltu	s8,s7,20000a70 <FLASH_EEPROM_CMD+0x1ae>
2000095a:	000705b7          	lui	a1,0x70
2000095e:	95da                	add	a1,a1,s6
20000960:	00078737          	lui	a4,0x78
20000964:	5579                	li	a0,-2
20000966:	04e5f263          	bgeu	a1,a4,200009aa <FLASH_EEPROM_CMD+0xe8>
2000096a:	009587b3          	add	a5,a1,s1
2000096e:	02f76e63          	bltu	a4,a5,200009aa <FLASH_EEPROM_CMD+0xe8>
20000972:	00080b37          	lui	s6,0x80
20000976:	47a9                	li	a5,10
20000978:	0165eb33          	or	s6,a1,s6
2000097c:	06f99963          	bne	s3,a5,200009ee <FLASH_EEPROM_CMD+0x12c>
20000980:	e489                	bnez	s1,2000098a <FLASH_EEPROM_CMD+0xc8>
20000982:	4481                	li	s1,0
20000984:	3d51                	jal	20000818 <FLASH_ROM_END>
20000986:	8526                	mv	a0,s1
20000988:	a00d                	j	200009aa <FLASH_EEPROM_CMD+0xe8>
2000098a:	85da                	mv	a1,s6
2000098c:	4509                	li	a0,2
2000098e:	3d55                	jal	20000842 <FLASH_ROM_ADDR>
20000990:	0905                	addi	s2,s2,1
20000992:	fff94503          	lbu	a0,-1(s2)
20000996:	14fd                	addi	s1,s1,-1
20000998:	0b05                	addi	s6,s6,1
2000099a:	3d69                	jal	20000834 <FLASH_ROM_OUT>
2000099c:	c481                	beqz	s1,200009a4 <FLASH_EEPROM_CMD+0xe2>
2000099e:	0ffb7793          	andi	a5,s6,255
200009a2:	f7fd                	bnez	a5,20000990 <FLASH_EEPROM_CMD+0xce>
200009a4:	35dd                	jal	2000088a <FLASH_ROM_WAIT>
200009a6:	fd69                	bnez	a0,20000980 <FLASH_EEPROM_CMD+0xbe>
200009a8:	557d                	li	a0,-1
200009aa:	400017b7          	lui	a5,0x40001
200009ae:	05700713          	li	a4,87
200009b2:	04e78023          	sb	a4,64(a5) # 40001040 <_eusrstack+0x1fff9040>
200009b6:	fa800713          	li	a4,-88
200009ba:	04e78023          	sb	a4,64(a5)
200009be:	0447c703          	lbu	a4,68(a5)
200009c2:	8b41                	andi	a4,a4,16
200009c4:	04e78223          	sb	a4,68(a5)
200009c8:	50f2                	lw	ra,60(sp)
200009ca:	e000e7b7          	lui	a5,0xe000e
200009ce:	1157a023          	sw	s5,256(a5) # e000e100 <_eusrstack+0xc0006100>
200009d2:	1147a223          	sw	s4,260(a5)
200009d6:	54e2                	lw	s1,56(sp)
200009d8:	4432                	lw	s0,12(sp)
200009da:	5952                	lw	s2,52(sp)
200009dc:	59c2                	lw	s3,48(sp)
200009de:	5a32                	lw	s4,44(sp)
200009e0:	5aa2                	lw	s5,40(sp)
200009e2:	5b12                	lw	s6,36(sp)
200009e4:	5b82                	lw	s7,32(sp)
200009e6:	4c72                	lw	s8,28(sp)
200009e8:	4ce2                	lw	s9,24(sp)
200009ea:	6121                	addi	sp,sp,64
200009ec:	8082                	ret
200009ee:	47a5                	li	a5,9
200009f0:	06f99563          	bne	s3,a5,20000a5a <FLASH_EEPROM_CMD+0x198>
200009f4:	6985                	lui	s3,0x1
200009f6:	0ff00913          	li	s2,255
200009fa:	009906b3          	add	a3,s2,s1
200009fe:	012b74b3          	and	s1,s6,s2
20000a02:	94b6                	add	s1,s1,a3
20000a04:	fff94913          	not	s2,s2
20000a08:	009974b3          	and	s1,s2,s1
20000a0c:	6b85                	lui	s7,0x1
20000a0e:	01697933          	and	s2,s2,s6
20000a12:	6b41                	lui	s6,0x10
20000a14:	fff98793          	addi	a5,s3,-1 # fff <system_init+0xef>
20000a18:	0127f7b3          	and	a5,a5,s2
20000a1c:	e399                	bnez	a5,20000a22 <FLASH_EEPROM_CMD+0x160>
20000a1e:	0134fc63          	bgeu	s1,s3,20000a36 <FLASH_EEPROM_CMD+0x174>
20000a22:	0049d993          	srli	s3,s3,0x4
20000a26:	47c1                	li	a5,16
20000a28:	ff37e6e3          	bltu	a5,s3,20000a14 <FLASH_EEPROM_CMD+0x152>
20000a2c:	bf99                	j	20000982 <FLASH_EEPROM_CMD+0xc0>
20000a2e:	6905                	lui	s2,0x1
20000a30:	69c1                	lui	s3,0x10
20000a32:	197d                	addi	s2,s2,-1
20000a34:	b7d9                	j	200009fa <FLASH_EEPROM_CMD+0x138>
20000a36:	0d800513          	li	a0,216
20000a3a:	01698863          	beq	s3,s6,20000a4a <FLASH_EEPROM_CMD+0x188>
20000a3e:	02000513          	li	a0,32
20000a42:	01798463          	beq	s3,s7,20000a4a <FLASH_EEPROM_CMD+0x188>
20000a46:	08100513          	li	a0,129
20000a4a:	85ca                	mv	a1,s2
20000a4c:	3bdd                	jal	20000842 <FLASH_ROM_ADDR>
20000a4e:	3d35                	jal	2000088a <FLASH_ROM_WAIT>
20000a50:	dd21                	beqz	a0,200009a8 <FLASH_EEPROM_CMD+0xe6>
20000a52:	994e                	add	s2,s2,s3
20000a54:	413484b3          	sub	s1,s1,s3
20000a58:	b7d9                	j	20000a1e <FLASH_EEPROM_CMD+0x15c>
20000a5a:	85da                	mv	a1,s6
20000a5c:	452d                	li	a0,11
20000a5e:	33d5                	jal	20000842 <FLASH_ROM_ADDR>
20000a60:	94ca                	add	s1,s1,s2
20000a62:	f29900e3          	beq	s2,s1,20000982 <FLASH_EEPROM_CMD+0xc0>
20000a66:	0905                	addi	s2,s2,1
20000a68:	3b7d                	jal	20000826 <FLASH_ROM_IN>
20000a6a:	fea90fa3          	sb	a0,-1(s2) # fff <system_init+0xef>
20000a6e:	bfd5                	j	20000a62 <FLASH_EEPROM_CMD+0x1a0>
20000a70:	fff98793          	addi	a5,s3,-1 # ffff <_data_lma+0xaa6b>
20000a74:	0ff7f793          	andi	a5,a5,255
20000a78:	0cfc6163          	bltu	s8,a5,20000b3a <.loop402+0x7a>
20000a7c:	041cc783          	lbu	a5,65(s9)
20000a80:	08300713          	li	a4,131
20000a84:	04f71f63          	bne	a4,a5,20000ae2 <.loop402+0x22>
20000a88:	00080737          	lui	a4,0x80
20000a8c:	04eb6b63          	bltu	s6,a4,20000ae2 <.loop402+0x22>
20000a90:	009b07b3          	add	a5,s6,s1
20000a94:	001006b7          	lui	a3,0x100
20000a98:	04d7f563          	bgeu	a5,a3,20000ae2 <.loop402+0x22>
20000a9c:	00eb4b33          	xor	s6,s6,a4
20000aa0:	4789                	li	a5,2
20000aa2:	06f99363          	bne	s3,a5,20000b08 <.loop402+0x48>
20000aa6:	8089                	srli	s1,s1,0x2
20000aa8:	49d5                	li	s3,21
20000aaa:	ec048ce3          	beqz	s1,20000982 <FLASH_EEPROM_CMD+0xc0>
20000aae:	85da                	mv	a1,s6
20000ab0:	4509                	li	a0,2
20000ab2:	3b41                	jal	20000842 <FLASH_ROM_ADDR>
20000ab4:	0911                	addi	s2,s2,4
20000ab6:	ffc92703          	lw	a4,-4(s2)
20000aba:	4791                	li	a5,4
20000abc:	80e42023          	sw	a4,-2048(s0)

20000ac0 <.loop402>:
20000ac0:	80640703          	lb	a4,-2042(s0)
20000ac4:	fe074ee3          	bltz	a4,20000ac0 <.loop402>
20000ac8:	81340323          	sb	s3,-2042(s0)
20000acc:	17fd                	addi	a5,a5,-1
20000ace:	fbed                	bnez	a5,20000ac0 <.loop402>
20000ad0:	14fd                	addi	s1,s1,-1
20000ad2:	0b11                	addi	s6,s6,4
20000ad4:	c481                	beqz	s1,20000adc <.loop402+0x1c>
20000ad6:	0ffb7793          	andi	a5,s6,255
20000ada:	ffe9                	bnez	a5,20000ab4 <FLASH_EEPROM_CMD+0x1f2>
20000adc:	337d                	jal	2000088a <FLASH_ROM_WAIT>
20000ade:	f571                	bnez	a0,20000aaa <FLASH_EEPROM_CMD+0x1e8>
20000ae0:	b5e1                	j	200009a8 <FLASH_EEPROM_CMD+0xe6>
20000ae2:	400017b7          	lui	a5,0x40001
20000ae6:	0457c703          	lbu	a4,69(a5) # 40001045 <_eusrstack+0x1fff9045>
20000aea:	000807b7          	lui	a5,0x80
20000aee:	02077713          	andi	a4,a4,32
20000af2:	e319                	bnez	a4,20000af8 <.loop402+0x38>
20000af4:	000787b7          	lui	a5,0x78
20000af8:	5579                	li	a0,-2
20000afa:	eafb78e3          	bgeu	s6,a5,200009aa <FLASH_EEPROM_CMD+0xe8>
20000afe:	009b0733          	add	a4,s6,s1
20000b02:	f8e7ffe3          	bgeu	a5,a4,20000aa0 <FLASH_EEPROM_CMD+0x1de>
20000b06:	b555                	j	200009aa <FLASH_EEPROM_CMD+0xe8>
20000b08:	4785                	li	a5,1
20000b0a:	f2f982e3          	beq	s3,a5,20000a2e <FLASH_EEPROM_CMD+0x16c>
20000b0e:	85da                	mv	a1,s6
20000b10:	452d                	li	a0,11
20000b12:	3b05                	jal	20000842 <FLASH_ROM_ADDR>
20000b14:	fff48993          	addi	s3,s1,-1 # 7ffff <_data_lma+0x7aa6b>
20000b18:	e60485e3          	beqz	s1,20000982 <FLASH_EEPROM_CMD+0xc0>
20000b1c:	3329                	jal	20000826 <FLASH_ROM_IN>
20000b1e:	0039f793          	andi	a5,s3,3
20000b22:	eb91                	bnez	a5,20000b36 <.loop402+0x76>
20000b24:	80042683          	lw	a3,-2048(s0)
20000b28:	00092703          	lw	a4,0(s2)
20000b2c:	00490793          	addi	a5,s2,4
20000b30:	e4e69ae3          	bne	a3,a4,20000984 <FLASH_EEPROM_CMD+0xc2>
20000b34:	893e                	mv	s2,a5
20000b36:	84ce                	mv	s1,s3
20000b38:	bff1                	j	20000b14 <.loop402+0x54>
20000b3a:	47b5                	li	a5,13
20000b3c:	00f99663          	bne	s3,a5,20000b48 <.loop402+0x88>
20000b40:	0b900513          	li	a0,185
20000b44:	31c9                	jal	20000806 <FLASH_ROM_BEG>
20000b46:	bd35                	j	20000982 <FLASH_EEPROM_CMD+0xc0>
20000b48:	47b1                	li	a5,12
20000b4a:	0ab00513          	li	a0,171
20000b4e:	fef98be3          	beq	s3,a5,20000b44 <.loop402+0x84>
20000b52:	4799                	li	a5,6
20000b54:	04f99163          	bne	s3,a5,20000b96 <.loop402+0xd6>
20000b58:	000805b7          	lui	a1,0x80
20000b5c:	00bb65b3          	or	a1,s6,a1
20000b60:	452d                	li	a0,11
20000b62:	31c5                	jal	20000842 <FLASH_ROM_ADDR>
20000b64:	4481                	li	s1,0
20000b66:	4b8d                	li	s7,3
20000b68:	49a1                	li	s3,8
20000b6a:	3975                	jal	20000826 <FLASH_ROM_IN>
20000b6c:	01749663          	bne	s1,s7,20000b78 <.loop402+0xb8>
20000b70:	80042783          	lw	a5,-2048(s0)
20000b74:	00f92023          	sw	a5,0(s2)
20000b78:	0485                	addi	s1,s1,1
20000b7a:	ff3498e3          	bne	s1,s3,20000b6a <.loop402+0xaa>
20000b7e:	80042783          	lw	a5,-2048(s0)
20000b82:	012b1713          	slli	a4,s6,0x12
20000b86:	00075563          	bgez	a4,20000b90 <.loop402+0xd0>
20000b8a:	00f91223          	sh	a5,4(s2)
20000b8e:	bbd5                	j	20000982 <FLASH_EEPROM_CMD+0xc0>
20000b90:	00f92223          	sw	a5,4(s2)
20000b94:	b3fd                	j	20000982 <FLASH_EEPROM_CMD+0xc0>
20000b96:	479d                	li	a5,7
20000b98:	02f99963          	bne	s3,a5,20000bca <.loop402+0x10a>
20000b9c:	4581                	li	a1,0
20000b9e:	04b00513          	li	a0,75
20000ba2:	3145                	jal	20000842 <FLASH_ROM_ADDR>
20000ba4:	44bd                	li	s1,15
20000ba6:	00092023          	sw	zero,0(s2)
20000baa:	00092223          	sw	zero,4(s2)
20000bae:	59fd                	li	s3,-1
20000bb0:	399d                	jal	20000826 <FLASH_ROM_IN>
20000bb2:	0074f793          	andi	a5,s1,7
20000bb6:	97ca                	add	a5,a5,s2
20000bb8:	0007c703          	lbu	a4,0(a5) # 78000 <_data_lma+0x72a6c>
20000bbc:	14fd                	addi	s1,s1,-1
20000bbe:	8d39                	xor	a0,a0,a4
20000bc0:	00a78023          	sb	a0,0(a5)
20000bc4:	ff3496e3          	bne	s1,s3,20000bb0 <.loop402+0xf0>
20000bc8:	bb6d                	j	20000982 <FLASH_EEPROM_CMD+0xc0>
20000bca:	47a1                	li	a5,8
20000bcc:	04f99263          	bne	s3,a5,20000c10 <.loop402+0x150>
20000bd0:	396d                	jal	2000088a <FLASH_ROM_WAIT>
20000bd2:	4481                	li	s1,0
20000bd4:	000b0d63          	beqz	s6,20000bee <.loop402+0x12e>
20000bd8:	478d                	li	a5,3
20000bda:	03c00493          	li	s1,60
20000bde:	00fb0863          	beq	s6,a5,20000bee <.loop402+0x12e>
20000be2:	05000493          	li	s1,80
20000be6:	018b0463          	beq	s6,s8,20000bee <.loop402+0x12e>
20000bea:	04400493          	li	s1,68
20000bee:	07c57513          	andi	a0,a0,124
20000bf2:	d89508e3          	beq	a0,s1,20000982 <FLASH_EEPROM_CMD+0xc0>
20000bf6:	4519                	li	a0,6
20000bf8:	3139                	jal	20000806 <FLASH_ROM_BEG>
20000bfa:	3939                	jal	20000818 <FLASH_ROM_END>
20000bfc:	4505                	li	a0,1
20000bfe:	3121                	jal	20000806 <FLASH_ROM_BEG>
20000c00:	8526                	mv	a0,s1
20000c02:	390d                	jal	20000834 <FLASH_ROM_OUT>
20000c04:	4509                	li	a0,2
20000c06:	313d                	jal	20000834 <FLASH_ROM_OUT>
20000c08:	3149                	jal	2000088a <FLASH_ROM_WAIT>
20000c0a:	d6051ce3          	bnez	a0,20000982 <FLASH_EEPROM_CMD+0xc0>
20000c0e:	bb69                	j	200009a8 <FLASH_EEPROM_CMD+0xe6>
20000c10:	4791                	li	a5,4
20000c12:	00f99963          	bne	s3,a5,20000c24 <.loop402+0x164>
20000c16:	06600513          	li	a0,102
20000c1a:	36f5                	jal	20000806 <FLASH_ROM_BEG>
20000c1c:	3ef5                	jal	20000818 <FLASH_ROM_END>
20000c1e:	09900513          	li	a0,153
20000c22:	b70d                	j	20000b44 <.loop402+0x84>
20000c24:	d4098fe3          	beqz	s3,20000982 <FLASH_EEPROM_CMD+0xc0>
20000c28:	54f1                	li	s1,-4
20000c2a:	bba9                	j	20000984 <FLASH_EEPROM_CMD+0xc2>

Disassembly of section .text:

00000c30 <handle_reset>:
handle_reset():
C:\MRS_DATA\workspace\CH583M\obj/../Startup/startup_CH583.S:129
     c30:	20001197          	auipc	gp,0x20001
     c34:	8b018193          	addi	gp,gp,-1872 # 200014e0 <__global_pointer$>
C:\MRS_DATA\workspace\CH583M\obj/../Startup/startup_CH583.S:132
     c38:	20007117          	auipc	sp,0x20007
     c3c:	3c810113          	addi	sp,sp,968 # 20008000 <_eusrstack>
C:\MRS_DATA\workspace\CH583M\obj/../Startup/startup_CH583.S:136
     c40:	00400513          	li	a0,4
C:\MRS_DATA\workspace\CH583M\obj/../Startup/startup_CH583.S:137
     c44:	1ffff597          	auipc	a1,0x1ffff
     c48:	3bc58593          	addi	a1,a1,956 # 20000000 <_highcode_vma_start>
C:\MRS_DATA\workspace\CH583M\obj/../Startup/startup_CH583.S:138
     c4c:	20000617          	auipc	a2,0x20000
     c50:	fe060613          	addi	a2,a2,-32 # 20000c2c <_highcode_vma_end>
C:\MRS_DATA\workspace\CH583M\obj/../Startup/startup_CH583.S:139
     c54:	00c5fa63          	bgeu	a1,a2,c68 <handle_reset+0x38>
C:\MRS_DATA\workspace\CH583M\obj/../Startup/startup_CH583.S:141
     c58:	00052283          	lw	t0,0(a0)
C:\MRS_DATA\workspace\CH583M\obj/../Startup/startup_CH583.S:142
     c5c:	0055a023          	sw	t0,0(a1)
C:\MRS_DATA\workspace\CH583M\obj/../Startup/startup_CH583.S:143
     c60:	0511                	addi	a0,a0,4
C:\MRS_DATA\workspace\CH583M\obj/../Startup/startup_CH583.S:144
     c62:	0591                	addi	a1,a1,4
C:\MRS_DATA\workspace\CH583M\obj/../Startup/startup_CH583.S:145
     c64:	fec5eae3          	bltu	a1,a2,c58 <handle_reset+0x28>
C:\MRS_DATA\workspace\CH583M\obj/../Startup/startup_CH583.S:149
     c68:	00005517          	auipc	a0,0x5
     c6c:	92c50513          	addi	a0,a0,-1748 # 5594 <_data_lma>
C:\MRS_DATA\workspace\CH583M\obj/../Startup/startup_CH583.S:150
     c70:	20000597          	auipc	a1,0x20000
     c74:	fbc58593          	addi	a1,a1,-68 # 20000c2c <_highcode_vma_end>
C:\MRS_DATA\workspace\CH583M\obj/../Startup/startup_CH583.S:151
     c78:	81018613          	addi	a2,gp,-2032 # 20000cf0 <_edata>
C:\MRS_DATA\workspace\CH583M\obj/../Startup/startup_CH583.S:152
     c7c:	00c5fa63          	bgeu	a1,a2,c90 <handle_reset+0x60>
C:\MRS_DATA\workspace\CH583M\obj/../Startup/startup_CH583.S:154
     c80:	00052283          	lw	t0,0(a0)
C:\MRS_DATA\workspace\CH583M\obj/../Startup/startup_CH583.S:155
     c84:	0055a023          	sw	t0,0(a1)
C:\MRS_DATA\workspace\CH583M\obj/../Startup/startup_CH583.S:156
     c88:	0511                	addi	a0,a0,4
C:\MRS_DATA\workspace\CH583M\obj/../Startup/startup_CH583.S:157
     c8a:	0591                	addi	a1,a1,4
C:\MRS_DATA\workspace\CH583M\obj/../Startup/startup_CH583.S:158
     c8c:	fec5eae3          	bltu	a1,a2,c80 <handle_reset+0x50>
C:\MRS_DATA\workspace\CH583M\obj/../Startup/startup_CH583.S:161
     c90:	81018513          	addi	a0,gp,-2032 # 20000cf0 <_edata>
C:\MRS_DATA\workspace\CH583M\obj/../Startup/startup_CH583.S:162
     c94:	20002597          	auipc	a1,0x20002
     c98:	29458593          	addi	a1,a1,660 # 20002f28 <_ebss>
C:\MRS_DATA\workspace\CH583M\obj/../Startup/startup_CH583.S:163
     c9c:	00b57763          	bgeu	a0,a1,caa <handle_reset+0x7a>
C:\MRS_DATA\workspace\CH583M\obj/../Startup/startup_CH583.S:165
     ca0:	00052023          	sw	zero,0(a0)
C:\MRS_DATA\workspace\CH583M\obj/../Startup/startup_CH583.S:166
     ca4:	0511                	addi	a0,a0,4
C:\MRS_DATA\workspace\CH583M\obj/../Startup/startup_CH583.S:167
     ca6:	feb56de3          	bltu	a0,a1,ca0 <handle_reset+0x70>
C:\MRS_DATA\workspace\CH583M\obj/../Startup/startup_CH583.S:170
     caa:	42fd                	li	t0,31
C:\MRS_DATA\workspace\CH583M\obj/../Startup/startup_CH583.S:171
     cac:	bc029073          	csrw	0xbc0,t0
C:\MRS_DATA\workspace\CH583M\obj/../Startup/startup_CH583.S:173
     cb0:	428d                	li	t0,3
C:\MRS_DATA\workspace\CH583M\obj/../Startup/startup_CH583.S:174
     cb2:	80429073          	csrw	0x804,t0
C:\MRS_DATA\workspace\CH583M\obj/../Startup/startup_CH583.S:176
     cb6:	08800293          	li	t0,136
C:\MRS_DATA\workspace\CH583M\obj/../Startup/startup_CH583.S:177
     cba:	3002a073          	csrs	mstatus,t0
C:\MRS_DATA\workspace\CH583M\obj/../Startup/startup_CH583.S:178
     cbe:	1ffff297          	auipc	t0,0x1ffff
     cc2:	34228293          	addi	t0,t0,834 # 20000000 <_highcode_vma_start>
C:\MRS_DATA\workspace\CH583M\obj/../Startup/startup_CH583.S:181
     cc6:	0032e293          	ori	t0,t0,3
C:\MRS_DATA\workspace\CH583M\obj/../Startup/startup_CH583.S:182
     cca:	30529073          	csrw	mtvec,t0
C:\MRS_DATA\workspace\CH583M\obj/../Startup/startup_CH583.S:184
     cce:	00000297          	auipc	t0,0x0
     cd2:	0b828293          	addi	t0,t0,184 # d86 <main>
C:\MRS_DATA\workspace\CH583M\obj/../Startup/startup_CH583.S:185
     cd6:	34129073          	csrw	mepc,t0
C:\MRS_DATA\workspace\CH583M\obj/../Startup/startup_CH583.S:188
     cda:	30200073          	mret

00000cde <memset>:
memset():
     cde:	433d                	li	t1,15
     ce0:	872a                	mv	a4,a0
     ce2:	02c37363          	bgeu	t1,a2,d08 <memset+0x2a>
     ce6:	00f77793          	andi	a5,a4,15
     cea:	efbd                	bnez	a5,d68 <memset+0x8a>
     cec:	e5ad                	bnez	a1,d56 <memset+0x78>
     cee:	ff067693          	andi	a3,a2,-16
     cf2:	8a3d                	andi	a2,a2,15
     cf4:	96ba                	add	a3,a3,a4
     cf6:	c30c                	sw	a1,0(a4)
     cf8:	c34c                	sw	a1,4(a4)
     cfa:	c70c                	sw	a1,8(a4)
     cfc:	c74c                	sw	a1,12(a4)
     cfe:	0741                	addi	a4,a4,16
     d00:	fed76be3          	bltu	a4,a3,cf6 <memset+0x18>
     d04:	e211                	bnez	a2,d08 <memset+0x2a>
     d06:	8082                	ret
     d08:	40c306b3          	sub	a3,t1,a2
     d0c:	068a                	slli	a3,a3,0x2
     d0e:	00000297          	auipc	t0,0x0
     d12:	9696                	add	a3,a3,t0
     d14:	00a68067          	jr	10(a3) # 10000a <_data_lma+0xfaa76>
     d18:	00b70723          	sb	a1,14(a4) # 8000e <_data_lma+0x7aa7a>
     d1c:	00b706a3          	sb	a1,13(a4)
     d20:	00b70623          	sb	a1,12(a4)
     d24:	00b705a3          	sb	a1,11(a4)
     d28:	00b70523          	sb	a1,10(a4)
     d2c:	00b704a3          	sb	a1,9(a4)
     d30:	00b70423          	sb	a1,8(a4)
     d34:	00b703a3          	sb	a1,7(a4)
     d38:	00b70323          	sb	a1,6(a4)
     d3c:	00b702a3          	sb	a1,5(a4)
     d40:	00b70223          	sb	a1,4(a4)
     d44:	00b701a3          	sb	a1,3(a4)
     d48:	00b70123          	sb	a1,2(a4)
     d4c:	00b700a3          	sb	a1,1(a4)
     d50:	00b70023          	sb	a1,0(a4)
     d54:	8082                	ret
     d56:	0ff5f593          	andi	a1,a1,255
     d5a:	00859693          	slli	a3,a1,0x8
     d5e:	8dd5                	or	a1,a1,a3
     d60:	01059693          	slli	a3,a1,0x10
     d64:	8dd5                	or	a1,a1,a3
     d66:	b761                	j	cee <memset+0x10>
     d68:	00279693          	slli	a3,a5,0x2
     d6c:	00000297          	auipc	t0,0x0
     d70:	9696                	add	a3,a3,t0
     d72:	8286                	mv	t0,ra
     d74:	fa8680e7          	jalr	-88(a3)
     d78:	8096                	mv	ra,t0
     d7a:	17c1                	addi	a5,a5,-16
     d7c:	8f1d                	sub	a4,a4,a5
     d7e:	963e                	add	a2,a2,a5
     d80:	f8c374e3          	bgeu	t1,a2,d08 <memset+0x2a>
     d84:	b7a5                	j	cec <memset+0xe>

00000d86 <main>:
main():
C:\MRS_DATA\workspace\CH583M_Watch\obj/../src/Main.c:24
{
     d86:	1141                	addi	sp,sp,-16
     d88:	c606                	sw	ra,12(sp)
C:\MRS_DATA\workspace\CH583M_Watch\obj/../src/Main.c:25
    main_init();
     d8a:	2cad                	jal	1004 <main_init>
C:\MRS_DATA\workspace\CH583M_Watch\obj/../src/Main.c:26
    main_loop();
     d8c:	2c71                	jal	1028 <main_loop>
C:\MRS_DATA\workspace\CH583M_Watch\obj/../src/Main.c:28 (discriminator 1)
    {}
     d8e:	a001                	j	d8e <main+0x8>

00000d90 <app_uart_tx_data>:
app_uart_tx_data():
C:\MRS_DATA\workspace\CH583M_Watch\obj/../src/app.c:41
uint8_t uart_rx_flag = 0;
//for interrupt rx blcak hole ,when uart rx fifo full
uint8_t for_uart_rx_black_hole = 0;

void app_uart_tx_data(uint8_t *data, uint16_t length)
{
     d90:	1101                	addi	sp,sp,-32
C:\MRS_DATA\workspace\CH583M_Watch\obj/../src/app.c:42
    uint16_t write_length = length;
     d92:	00b11723          	sh	a1,14(sp)
C:\MRS_DATA\workspace\CH583M_Watch\obj/../src/app.c:43
    app_drv_fifo_write(&app_uart_tx_fifo, data, &write_length);
     d96:	00e10613          	addi	a2,sp,14
     d9a:	85aa                	mv	a1,a0
     d9c:	20001517          	auipc	a0,0x20001
     da0:	16c50513          	addi	a0,a0,364 # 20001f08 <app_uart_tx_fifo>
C:\MRS_DATA\workspace\CH583M_Watch\obj/../src/app.c:41
{
     da4:	ce06                	sw	ra,28(sp)
C:\MRS_DATA\workspace\CH583M_Watch\obj/../src/app.c:43
    app_drv_fifo_write(&app_uart_tx_fifo, data, &write_length);
     da6:	2985                	jal	1216 <app_drv_fifo_write>
C:\MRS_DATA\workspace\CH583M_Watch\obj/../src/app.c:44
}
     da8:	40f2                	lw	ra,28(sp)
     daa:	6105                	addi	sp,sp,32
     dac:	8082                	ret

00000dae <crc16_calc>:
crc16_calc():
C:\MRS_DATA\workspace\CH583M_Watch\obj/../src/app.c:155
{
    uint8_t ucCRCHi = 0xFF;                         /* 高CRC字节初始化 */
    uint8_t ucCRCLo = 0xFF;                         /* 低CRC 字节初始化 */
    uint16_t usIndex;                               /* CRC循环中的索引 */

    while (_usLen--)
     dae:	95aa                	add	a1,a1,a0
     db0:	05c2                	slli	a1,a1,0x10
C:\MRS_DATA\workspace\CH583M_Watch\obj/../src/app.c:152
    uint8_t ucCRCLo = 0xFF;                         /* 低CRC 字节初始化 */
     db2:	0ff00713          	li	a4,255
C:\MRS_DATA\workspace\CH583M_Watch\obj/../src/app.c:151
    uint8_t ucCRCHi = 0xFF;                         /* 高CRC字节初始化 */
     db6:	0ff00693          	li	a3,255
C:\MRS_DATA\workspace\CH583M_Watch\obj/../src/app.c:155
    while (_usLen--)
     dba:	81c1                	srli	a1,a1,0x10
C:\MRS_DATA\workspace\CH583M_Watch\obj/../src/app.c:158
    {
        usIndex = ucCRCLo ^ *_pBuf++;               /* 计算CRC */
        ucCRCLo = ucCRCHi ^ s_crchi[usIndex];
     dbc:	00003617          	auipc	a2,0x3
     dc0:	1c860613          	addi	a2,a2,456 # 3f84 <s_crchi>
C:\MRS_DATA\workspace\CH583M_Watch\obj/../src/app.c:159
        ucCRCHi = s_crclo[usIndex];
     dc4:	00003817          	auipc	a6,0x3
     dc8:	2c080813          	addi	a6,a6,704 # 4084 <s_crclo>
C:\MRS_DATA\workspace\CH583M_Watch\obj/../src/app.c:155
    while (_usLen--)
     dcc:	01051793          	slli	a5,a0,0x10
     dd0:	83c1                	srli	a5,a5,0x10
     dd2:	00f59663          	bne	a1,a5,dde <crc16_calc+0x30>
C:\MRS_DATA\workspace\CH583M_Watch\obj/../src/app.c:161
    }
    return ((uint16_t)ucCRCHi << 8 | ucCRCLo);      /* 返回校验结果，高字节在高位 */
     dd6:	00869513          	slli	a0,a3,0x8
C:\MRS_DATA\workspace\CH583M_Watch\obj/../src/app.c:162
}
     dda:	8d59                	or	a0,a0,a4
     ddc:	8082                	ret
C:\MRS_DATA\workspace\CH583M_Watch\obj/../src/app.c:157
        usIndex = ucCRCLo ^ *_pBuf++;               /* 计算CRC */
     dde:	0505                	addi	a0,a0,1
     de0:	fff54783          	lbu	a5,-1(a0)
C:\MRS_DATA\workspace\CH583M_Watch\obj/../src/app.c:158
        ucCRCLo = ucCRCHi ^ s_crchi[usIndex];
     de4:	8fb9                	xor	a5,a5,a4
     de6:	00f60733          	add	a4,a2,a5
     dea:	00074703          	lbu	a4,0(a4)
C:\MRS_DATA\workspace\CH583M_Watch\obj/../src/app.c:159
        ucCRCHi = s_crclo[usIndex];
     dee:	97c2                	add	a5,a5,a6
C:\MRS_DATA\workspace\CH583M_Watch\obj/../src/app.c:158
        ucCRCLo = ucCRCHi ^ s_crchi[usIndex];
     df0:	8f35                	xor	a4,a4,a3
C:\MRS_DATA\workspace\CH583M_Watch\obj/../src/app.c:159
        ucCRCHi = s_crclo[usIndex];
     df2:	0007c683          	lbu	a3,0(a5)
     df6:	bfd9                	j	dcc <crc16_calc+0x1e>

00000df8 <parsePacket>:
parsePacket():
C:\MRS_DATA\workspace\CH583M_Watch\obj/../src/app.c:182
    packet[*packetLength - 2] = (checksum >> 8) & 0xFF;
    packet[*packetLength - 1] = checksum & 0xFF;
}

uint8_t parsePacket(uint8_t *packet, uint8_t packetLength, uint8_t *id, uint8_t *op, uint8_t *data, uint8_t *dataLength)
{
     df8:	1141                	addi	sp,sp,-16
     dfa:	c226                	sw	s1,4(sp)
     dfc:	c606                	sw	ra,12(sp)
     dfe:	84ae                	mv	s1,a1
     e00:	c422                	sw	s0,8(sp)
C:\MRS_DATA\workspace\CH583M_Watch\obj/../src/app.c:183
    if (packetLength < 6 || packet[0] != START_BYTE)
     e02:	4595                	li	a1,5
     e04:	0095f963          	bgeu	a1,s1,e16 <parsePacket+0x1e>
     e08:	842a                	mv	s0,a0
C:\MRS_DATA\workspace\CH583M_Watch\obj/../src/app.c:183 (discriminator 1)
     e0a:	00054503          	lbu	a0,0(a0)
     e0e:	0aa00593          	li	a1,170
     e12:	00b50e63          	beq	a0,a1,e2e <parsePacket+0x36>
C:\MRS_DATA\workspace\CH583M_Watch\obj/../src/app.c:185
    {
        app_uart_tx_data("err pack!\r\n", 11);
     e16:	00003517          	auipc	a0,0x3
     e1a:	13e50513          	addi	a0,a0,318 # 3f54 <_sbrk+0x74>
     e1e:	45ad                	li	a1,11
     e20:	3f85                	jal	d90 <app_uart_tx_data>
C:\MRS_DATA\workspace\CH583M_Watch\obj/../src/app.c:186
        return 1; // 无效的数据包
     e22:	4505                	li	a0,1
C:\MRS_DATA\workspace\CH583M_Watch\obj/../src/app.c:211
    {
        app_uart_tx_data("check sum err!\r\n", 16);
        return 3; // 校验和不匹配
    }
    return 0; // 解析成功
}
     e24:	40b2                	lw	ra,12(sp)
     e26:	4422                	lw	s0,8(sp)
     e28:	4492                	lw	s1,4(sp)
     e2a:	0141                	addi	sp,sp,16
     e2c:	8082                	ret
C:\MRS_DATA\workspace\CH583M_Watch\obj/../src/app.c:188
    *id = packet[1];
     e2e:	00144583          	lbu	a1,1(s0)
     e32:	00b60023          	sb	a1,0(a2)
C:\MRS_DATA\workspace\CH583M_Watch\obj/../src/app.c:189
    *op = packet[2];
     e36:	00244603          	lbu	a2,2(s0)
     e3a:	00c68023          	sb	a2,0(a3)
C:\MRS_DATA\workspace\CH583M_Watch\obj/../src/app.c:190
    *dataLength = packet[3]; // 减去起始字节、ID、操作码
     e3e:	00344603          	lbu	a2,3(s0)
     e42:	00c78023          	sb	a2,0(a5)
C:\MRS_DATA\workspace\CH583M_Watch\obj/../src/app.c:193
    if((*dataLength  > 0)&&(packetLength >= ((*dataLength) + 6)))
     e46:	ce1d                	beqz	a2,e84 <parsePacket+0x8c>
     e48:	00560793          	addi	a5,a2,5
     e4c:	0297dc63          	bge	a5,s1,e84 <parsePacket+0x8c>
C:\MRS_DATA\workspace\CH583M_Watch\obj/../src/app.c:195
        memcpy(data, packet + 4, *dataLength);
     e50:	00440593          	addi	a1,s0,4
     e54:	853a                	mv	a0,a4
     e56:	0f7010ef          	jal	ra,274c <memcpy>
C:\MRS_DATA\workspace\CH583M_Watch\obj/../src/app.c:203
    checksum = crc16_calc(packet,packetLength - 2);
     e5a:	ffe48593          	addi	a1,s1,-2
     e5e:	05c2                	slli	a1,a1,0x10
     e60:	8522                	mv	a0,s0
     e62:	81c1                	srli	a1,a1,0x10
     e64:	37a9                	jal	dae <crc16_calc>
C:\MRS_DATA\workspace\CH583M_Watch\obj/../src/app.c:205
    if (!(((checksum & 0xFF) == packet[packetLength - 1]) && (((checksum >> 8) & 0xFF) == packet[packetLength - 2])))
     e66:	9426                	add	s0,s0,s1
     e68:	fff44703          	lbu	a4,-1(s0)
     e6c:	0ff57793          	andi	a5,a0,255
     e70:	02f70263          	beq	a4,a5,e94 <parsePacket+0x9c>
C:\MRS_DATA\workspace\CH583M_Watch\obj/../src/app.c:207
        app_uart_tx_data("check sum err!\r\n", 16);
     e74:	00003517          	auipc	a0,0x3
     e78:	0fc50513          	addi	a0,a0,252 # 3f70 <_sbrk+0x90>
     e7c:	45c1                	li	a1,16
     e7e:	3f09                	jal	d90 <app_uart_tx_data>
C:\MRS_DATA\workspace\CH583M_Watch\obj/../src/app.c:208
        return 3; // 校验和不匹配
     e80:	450d                	li	a0,3
     e82:	b74d                	j	e24 <parsePacket+0x2c>
C:\MRS_DATA\workspace\CH583M_Watch\obj/../src/app.c:199
        app_uart_tx_data("data len err!\r\n", 15);
     e84:	00003517          	auipc	a0,0x3
     e88:	0dc50513          	addi	a0,a0,220 # 3f60 <_sbrk+0x80>
     e8c:	45bd                	li	a1,15
     e8e:	3709                	jal	d90 <app_uart_tx_data>
C:\MRS_DATA\workspace\CH583M_Watch\obj/../src/app.c:200
        return 2; // 数据不完整
     e90:	4509                	li	a0,2
     e92:	bf49                	j	e24 <parsePacket+0x2c>
C:\MRS_DATA\workspace\CH583M_Watch\obj/../src/app.c:205
    if (!(((checksum & 0xFF) == packet[packetLength - 1]) && (((checksum >> 8) & 0xFF) == packet[packetLength - 2])))
     e94:	8121                	srli	a0,a0,0x8
     e96:	ffe44703          	lbu	a4,-2(s0)
     e9a:	01051793          	slli	a5,a0,0x10
     e9e:	83c1                	srli	a5,a5,0x10
C:\MRS_DATA\workspace\CH583M_Watch\obj/../src/app.c:210
    return 0; // 解析成功
     ea0:	4501                	li	a0,0
C:\MRS_DATA\workspace\CH583M_Watch\obj/../src/app.c:205
    if (!(((checksum & 0xFF) == packet[packetLength - 1]) && (((checksum >> 8) & 0xFF) == packet[packetLength - 2])))
     ea2:	f8f701e3          	beq	a4,a5,e24 <parsePacket+0x2c>
     ea6:	b7f9                	j	e74 <parsePacket+0x7c>

00000ea8 <app_uart_process>:
app_uart_process():
C:\MRS_DATA\workspace\CH583M_Watch\obj/../src/app.c:47
{
     ea8:	7135                	addi	sp,sp,-160
     eaa:	cf06                	sw	ra,156(sp)
C:\MRS_DATA\workspace\CH583M_Watch\obj/../src/app.c:49
    if(uart_rx_flag)
     eac:	8131c783          	lbu	a5,-2029(gp) # 20000cf3 <uart_rx_flag>
     eb0:	cb8d                	beqz	a5,ee2 <app_uart_process+0x3a>
C:\MRS_DATA\workspace\CH583M_Watch\obj/../src/app.c:51
        uint16_t read_length = 20;
     eb2:	47d1                	li	a5,20
C:\MRS_DATA\workspace\CH583M_Watch\obj/../src/app.c:54
        app_drv_fifo_result_t res = app_drv_fifo_read(&app_uart_rx_fifo, to_test_buffer, &read_length);
     eb4:	00a10613          	addi	a2,sp,10
     eb8:	082c                	addi	a1,sp,24
     eba:	20001517          	auipc	a0,0x20001
     ebe:	e4250513          	addi	a0,a0,-446 # 20001cfc <app_uart_rx_fifo>
C:\MRS_DATA\workspace\CH583M_Watch\obj/../src/app.c:51
        uint16_t read_length = 20;
     ec2:	00f11523          	sh	a5,10(sp)
C:\MRS_DATA\workspace\CH583M_Watch\obj/../src/app.c:54
        app_drv_fifo_result_t res = app_drv_fifo_read(&app_uart_rx_fifo, to_test_buffer, &read_length);
     ec6:	210d                	jal	12e8 <app_drv_fifo_read>
C:\MRS_DATA\workspace\CH583M_Watch\obj/../src/app.c:55
        if(res == APP_DRV_FIFO_RESULT_SUCCESS)
     ec8:	e919                	bnez	a0,ede <app_uart_process+0x36>
C:\MRS_DATA\workspace\CH583M_Watch\obj/../src/app.c:64
            if(parsePacket(to_test_buffer,read_length,&id,&op,array,&len) == 0)
     eca:	00a14583          	lbu	a1,10(sp)
     ece:	00910793          	addi	a5,sp,9
     ed2:	0078                	addi	a4,sp,12
     ed4:	0034                	addi	a3,sp,8
     ed6:	00710613          	addi	a2,sp,7
     eda:	0828                	addi	a0,sp,24
     edc:	3f31                	jal	df8 <parsePacket>
C:\MRS_DATA\workspace\CH583M_Watch\obj/../src/app.c:68 (discriminator 1)
        uart_rx_flag = 0;
     ede:	800189a3          	sb	zero,-2029(gp) # 20000cf3 <uart_rx_flag>
C:\MRS_DATA\workspace\CH583M_Watch\obj/../src/app.c:71
    if(R8_UART1_TFC < UART_FIFO_SIZE)
     ee2:	400035b7          	lui	a1,0x40003
     ee6:	40b5c783          	lbu	a5,1035(a1) # 4000340b <_eusrstack+0x1fffb40b>
     eea:	471d                	li	a4,7
     eec:	00f76f63          	bltu	a4,a5,f0a <app_uart_process+0x62>
C:\MRS_DATA\workspace\CH583M_Watch\obj/../src/app.c:73
        app_drv_fifo_read_to_same_addr(&app_uart_tx_fifo, (uint8_t *)&R8_UART1_THR, UART_FIFO_SIZE - R8_UART1_TFC);
     ef0:	40b5c783          	lbu	a5,1035(a1)
     ef4:	4621                	li	a2,8
     ef6:	40858593          	addi	a1,a1,1032
     efa:	8e1d                	sub	a2,a2,a5
     efc:	0642                	slli	a2,a2,0x10
     efe:	8241                	srli	a2,a2,0x10
     f00:	20001517          	auipc	a0,0x20001
     f04:	00850513          	addi	a0,a0,8 # 20001f08 <app_uart_tx_fifo>
     f08:	2189                	jal	134a <app_drv_fifo_read_to_same_addr>
C:\MRS_DATA\workspace\CH583M_Watch\obj/../src/app.c:80
}
     f0a:	40fa                	lw	ra,156(sp)
     f0c:	610d                	addi	sp,sp,160
     f0e:	8082                	ret

00000f10 <system_init>:
system_init():
C:\MRS_DATA\workspace\CH583M_Watch\obj/../src/app.c:218

uint16_t RoughCalib_Value = 0;
uint16_t adc_buf[2][501];

void system_init(void)
{
     f10:	1141                	addi	sp,sp,-16
C:\MRS_DATA\workspace\CH583M_Watch\obj/../src/app.c:222
    uint8_t i;
    uint16_t adcBuff[20];

    SetSysClock(CLK_SOURCE_PLL_60MHz);
     f12:	04800513          	li	a0,72
C:\MRS_DATA\workspace\CH583M_Watch\obj/../src/app.c:218
{
     f16:	c606                	sw	ra,12(sp)
     f18:	c422                	sw	s0,8(sp)
C:\MRS_DATA\workspace\CH583M_Watch\obj/../src/app.c:222
    SetSysClock(CLK_SOURCE_PLL_60MHz);
     f1a:	1ffff097          	auipc	ra,0x1ffff
     f1e:	400080e7          	jalr	1024(ra) # 2000031a <SetSysClock>
C:\MRS_DATA\workspace\CH583M_Watch\obj/../src/app.c:226

    //tx fifo and tx fifo
    //The buffer length should be a power of 2
    app_drv_fifo_init(&app_uart_tx_fifo, app_uart_tx_buffer, APP_UART_TX_BUFFER_LENGTH);
     f22:	20000613          	li	a2,512
     f26:	20001597          	auipc	a1,0x20001
     f2a:	de258593          	addi	a1,a1,-542 # 20001d08 <app_uart_tx_buffer>
     f2e:	20001517          	auipc	a0,0x20001
     f32:	fda50513          	addi	a0,a0,-38 # 20001f08 <app_uart_tx_fifo>
     f36:	2c6d                	jal	11f0 <app_drv_fifo_init>
C:\MRS_DATA\workspace\CH583M_Watch\obj/../src/app.c:227
    app_drv_fifo_init(&app_uart_rx_fifo, app_uart_rx_buffer, APP_UART_RX_BUFFER_LENGTH);
     f38:	6605                	lui	a2,0x1
     f3a:	80060613          	addi	a2,a2,-2048 # 800 <_einit+0x7fc>
     f3e:	20000597          	auipc	a1,0x20000
     f42:	5be58593          	addi	a1,a1,1470 # 200014fc <app_uart_rx_buffer>
     f46:	20001517          	auipc	a0,0x20001
     f4a:	db650513          	addi	a0,a0,-586 # 20001cfc <app_uart_rx_fifo>
     f4e:	244d                	jal	11f0 <app_drv_fifo_init>
C:\MRS_DATA\workspace\CH583M_Watch\obj/../src/app.c:230

    /* 配置串口1：先配置IO口模式，再配置串口 */
    GPIOA_SetBits(GPIO_Pin_9);
     f50:	40001737          	lui	a4,0x40001
     f54:	0a872783          	lw	a5,168(a4) # 400010a8 <_eusrstack+0x1fff90a8>
C:\MRS_DATA\workspace\CH583M_Watch\obj/../src/app.c:231
    GPIOA_ModeCfg(GPIO_Pin_8, GPIO_ModeIN_PU);      // RXD-配置上拉输入
     f58:	4585                	li	a1,1
     f5a:	10000513          	li	a0,256
C:\MRS_DATA\workspace\CH583M_Watch\obj/../src/app.c:230
    GPIOA_SetBits(GPIO_Pin_9);
     f5e:	2007e793          	ori	a5,a5,512
     f62:	0af72423          	sw	a5,168(a4)
C:\MRS_DATA\workspace\CH583M_Watch\obj/../src/app.c:231
    GPIOA_ModeCfg(GPIO_Pin_8, GPIO_ModeIN_PU);      // RXD-配置上拉输入
     f66:	4e6010ef          	jal	ra,244c <GPIOA_ModeCfg>
C:\MRS_DATA\workspace\CH583M_Watch\obj/../src/app.c:232
    GPIOA_ModeCfg(GPIO_Pin_9, GPIO_ModeOut_PP_5mA); // TXD-配置推挽输出，注意先让IO口输出高电平
     f6a:	458d                	li	a1,3
     f6c:	20000513          	li	a0,512
     f70:	4dc010ef          	jal	ra,244c <GPIOA_ModeCfg>
C:\MRS_DATA\workspace\CH583M_Watch\obj/../src/app.c:233
    UART1_DefInit();
     f74:	762010ef          	jal	ra,26d6 <UART1_DefInit>
C:\MRS_DATA\workspace\CH583M_Watch\obj/../src/app.c:235

    UART1_ByteTrigCfg(UART_7BYTE_TRIG);
     f78:	450d                	li	a0,3
     f7a:	78e010ef          	jal	ra,2708 <UART1_ByteTrigCfg>
C:\MRS_DATA\workspace\CH583M_Watch\obj/../src/app.c:236
    UART1_INTCfg(ENABLE, RB_IER_RECV_RDY | RB_IER_LINE_STAT);
     f7e:	4595                	li	a1,5
     f80:	4505                	li	a0,1
     f82:	7a0010ef          	jal	ra,2722 <UART1_INTCfg>
PFIC_EnableIRQ():
C:\MRS_DATA\workspace\CH583M_Watch\obj/../RVMSIS/core_riscv.h:112
 *
 * @param   IRQn    - Interrupt Numbers
 */
RV_STATIC_INLINE void PFIC_EnableIRQ(IRQn_Type IRQn)
{
    PFIC->IENR[((uint32_t)(IRQn) >> 5)] = (1 << ((uint32_t)(IRQn)&0x1F));
     f86:	e000e437          	lui	s0,0xe000e
     f8a:	080007b7          	lui	a5,0x8000
system_init():
C:\MRS_DATA\workspace\CH583M_Watch\obj/../src/app.c:240
    PFIC_EnableIRQ(UART1_IRQn);

    /* 定时器1，设定1ms定时器*/
    TMR1_TimerInit(FREQ_SYS / 100);         // 设置定时时间 10ms
     f8e:	00092537          	lui	a0,0x92
PFIC_EnableIRQ():
C:\MRS_DATA\workspace\CH583M_Watch\obj/../RVMSIS/core_riscv.h:112
     f92:	10f42023          	sw	a5,256(s0) # e000e100 <_eusrstack+0xc0006100>
system_init():
C:\MRS_DATA\workspace\CH583M_Watch\obj/../src/app.c:240
     f96:	7c050513          	addi	a0,a0,1984 # 927c0 <_data_lma+0x8d22c>
     f9a:	6f6010ef          	jal	ra,2690 <TMR1_TimerInit>
C:\MRS_DATA\workspace\CH583M_Watch\obj/../src/app.c:241
    TMR1_ITCfg(ENABLE, TMR0_3_IT_CYC_END);  // 开启中断
     f9e:	40002737          	lui	a4,0x40002
     fa2:	40274783          	lbu	a5,1026(a4) # 40002402 <_eusrstack+0x1fffa402>
C:\MRS_DATA\workspace\CH583M_Watch\obj/../src/app.c:244
    PFIC_EnableIRQ(TMR1_IRQn);

    GPIOA_ModeCfg(GPIO_Pin_5, GPIO_ModeIN_Floating);//ntc
     fa6:	4581                	li	a1,0
     fa8:	02000513          	li	a0,32
C:\MRS_DATA\workspace\CH583M_Watch\obj/../src/app.c:241
    TMR1_ITCfg(ENABLE, TMR0_3_IT_CYC_END);  // 开启中断
     fac:	0017e793          	ori	a5,a5,1
     fb0:	40f70123          	sb	a5,1026(a4)
PFIC_EnableIRQ():
C:\MRS_DATA\workspace\CH583M_Watch\obj/../RVMSIS/core_riscv.h:112
     fb4:	010007b7          	lui	a5,0x1000
     fb8:	10f42023          	sw	a5,256(s0)
system_init():
C:\MRS_DATA\workspace\CH583M_Watch\obj/../src/app.c:244
    GPIOA_ModeCfg(GPIO_Pin_5, GPIO_ModeIN_Floating);//ntc
     fbc:	490010ef          	jal	ra,244c <GPIOA_ModeCfg>
C:\MRS_DATA\workspace\CH583M_Watch\obj/../src/app.c:245
    GPIOA_ModeCfg(GPIO_Pin_7, GPIO_ModeIN_Floating);//bat
     fc0:	4581                	li	a1,0
     fc2:	08000513          	li	a0,128
     fc6:	486010ef          	jal	ra,244c <GPIOA_ModeCfg>
C:\MRS_DATA\workspace\CH583M_Watch\obj/../src/app.c:246
    ADC_ExtSingleChSampInit(SampleFreq_3_2, ADC_PGA_0);
     fca:	4589                	li	a1,2
     fcc:	4501                	li	a0,0
     fce:	43a010ef          	jal	ra,2408 <ADC_ExtSingleChSampInit>
     fd2:	4415                	li	s0,5
C:\MRS_DATA\workspace\CH583M_Watch\obj/../src/app.c:248 (discriminator 3)
    for (i = 0; i < 5; i++)
        RoughCalib_Value = ADC_DataCalib_Rough();
     fd4:	3a6010ef          	jal	ra,237a <ADC_DataCalib_Rough>
     fd8:	147d                	addi	s0,s0,-1
     fda:	80a19823          	sh	a0,-2032(gp) # 20000cf0 <_edata>
     fde:	0ff47413          	andi	s0,s0,255
C:\MRS_DATA\workspace\CH583M_Watch\obj/../src/app.c:247 (discriminator 3)
    for (i = 0; i < 5; i++)
     fe2:	f86d                	bnez	s0,fd4 <system_init+0xc4>
C:\MRS_DATA\workspace\CH583M_Watch\obj/../src/app.c:249
    ADC_ChannelCfg(5);
     fe4:	400017b7          	lui	a5,0x40001
     fe8:	4715                	li	a4,5
     fea:	04e78c23          	sb	a4,88(a5) # 40001058 <_eusrstack+0x1fff9058>
     fee:	4451                	li	s0,20
C:\MRS_DATA\workspace\CH583M_Watch\obj/../src/app.c:251 (discriminator 3)
    for (i = 0; i < 20; i++) {
        adcBuff[i] = ADC_ExcutSingleConver() + RoughCalib_Value; // 连续采样20次
     ff0:	147d                	addi	s0,s0,-1
     ff2:	0ff47413          	andi	s0,s0,255
     ff6:	436010ef          	jal	ra,242c <ADC_ExcutSingleConver>
C:\MRS_DATA\workspace\CH583M_Watch\obj/../src/app.c:250 (discriminator 3)
    for (i = 0; i < 20; i++) {
     ffa:	f87d                	bnez	s0,ff0 <system_init+0xe0>
C:\MRS_DATA\workspace\CH583M_Watch\obj/../src/app.c:260
    static uint8_t pack_buf[12];
    static uint8_t pack_len;
    createPacket(245,3,buf,2,pack_buf,&pack_len);
    app_uart_tx_data(pack_buf, pack_len);
#endif
}
     ffc:	40b2                	lw	ra,12(sp)
     ffe:	4422                	lw	s0,8(sp)
    1000:	0141                	addi	sp,sp,16
    1002:	8082                	ret

00001004 <main_init>:
main_init():
C:\MRS_DATA\workspace\CH583M_Watch\obj/../src/app.c:263

void main_init(void)
{
    1004:	1141                	addi	sp,sp,-16
    1006:	c606                	sw	ra,12(sp)
C:\MRS_DATA\workspace\CH583M_Watch\obj/../src/app.c:264
    system_init();
    1008:	3721                	jal	f10 <system_init>
C:\MRS_DATA\workspace\CH583M_Watch\obj/../src/app.c:265
    PRINT("system run~~~\r\n");
    100a:	00003517          	auipc	a0,0x3
    100e:	efa50513          	addi	a0,a0,-262 # 3f04 <_sbrk+0x24>
    1012:	10b010ef          	jal	ra,291c <puts>
C:\MRS_DATA\workspace\CH583M_Watch\obj/../src/app.c:266
    Key_Init();
    1016:	2649                	jal	1398 <Key_Init>
C:\MRS_DATA\workspace\CH583M_Watch\obj/../src/app.c:267
    OLED_Init();
    1018:	158010ef          	jal	ra,2170 <OLED_Init>
C:\MRS_DATA\workspace\CH583M_Watch\obj/../src/app.c:268
    OLED_SetDir(3);
    101c:	450d                	li	a0,3
    101e:	21dd                	jal	1504 <OLED_SetDir>
C:\MRS_DATA\workspace\CH583M_Watch\obj/../src/app.c:270
    OLED_Clear(0);
}
    1020:	40b2                	lw	ra,12(sp)
C:\MRS_DATA\workspace\CH583M_Watch\obj/../src/app.c:269
    OLED_Clear(0);
    1022:	4501                	li	a0,0
C:\MRS_DATA\workspace\CH583M_Watch\obj/../src/app.c:270
}
    1024:	0141                	addi	sp,sp,16
C:\MRS_DATA\workspace\CH583M_Watch\obj/../src/app.c:269
    OLED_Clear(0);
    1026:	ab05                	j	1556 <OLED_Clear>

00001028 <main_loop>:
main_loop():
C:\MRS_DATA\workspace\CH583M_Watch\obj/../src/app.c:273

void main_loop(void)
{
    1028:	7179                	addi	sp,sp,-48
    102a:	cc52                	sw	s4,24(sp)
    102c:	ca56                	sw	s5,20(sp)
C:\MRS_DATA\workspace\CH583M_Watch\obj/../src/app.c:356
        if(!Timer_Task_Cnt[4])
        {
            Timer_Task_Cnt[4] = Timer_Task_Tick[4];

            OLED_Clear(0);
            uint32_t sec = uwTick / 1000 + 19 * 3600 + 59 * 60 + 56;
    102e:	6a49                	lui	s4,0x12
C:\MRS_DATA\workspace\CH583M_Watch\obj/../src/app.c:357
            Time_Display((sec / 3600) % 24, (sec / 60) % 60, sec % 60, uwTick % 1000);
    1030:	6a85                	lui	s5,0x1
C:\MRS_DATA\workspace\CH583M_Watch\obj/../src/app.c:273
{
    1032:	d422                	sw	s0,40(sp)
    1034:	d226                	sw	s1,36(sp)
    1036:	ce4e                	sw	s3,28(sp)
    1038:	c85a                	sw	s6,16(sp)
    103a:	d606                	sw	ra,44(sp)
    103c:	d04a                	sw	s2,32(sp)
    103e:	c65e                	sw	s7,12(sp)
    1040:	c462                	sw	s8,8(sp)
C:\MRS_DATA\workspace\CH583M_Watch\obj/../src/app.c:277
        if(!Timer_Task_Cnt[0])
    1042:	83418413          	addi	s0,gp,-1996 # 20000d14 <Timer_Task_Cnt>
C:\MRS_DATA\workspace\CH583M_Watch\obj/../src/app.c:279
            Timer_Task_Cnt[0] = Timer_Task_Tick[0];
    1046:	20000497          	auipc	s1,0x20000
    104a:	be648493          	addi	s1,s1,-1050 # 20000c2c <_highcode_vma_end>
C:\MRS_DATA\workspace\CH583M_Watch\obj/../src/app.c:280
            if(FUNC_KEY_GET() == CODE_CLICK)
    104e:	81c18993          	addi	s3,gp,-2020 # 20000cfc <func_key_fun>
C:\MRS_DATA\workspace\CH583M_Watch\obj/../src/app.c:299
            if(ENC1_GET() == ENC_CODE_LEFT)
    1052:	81818b13          	addi	s6,gp,-2024 # 20000cf8 <enc_code>
C:\MRS_DATA\workspace\CH583M_Watch\obj/../src/app.c:356
            uint32_t sec = uwTick / 1000 + 19 * 3600 + 59 * 60 + 56;
    1056:	93ca0a13          	addi	s4,s4,-1732 # 1193c <_data_lma+0xc3a8>
C:\MRS_DATA\workspace\CH583M_Watch\obj/../src/app.c:357
            Time_Display((sec / 3600) % 24, (sec / 60) % 60, sec % 60, uwTick % 1000);
    105a:	e10a8a93          	addi	s5,s5,-496 # e10 <parsePacket+0x18>
C:\MRS_DATA\workspace\CH583M_Watch\obj/../src/app.c:277
        if(!Timer_Task_Cnt[0])
    105e:	401c                	lw	a5,0(s0)
    1060:	e3b5                	bnez	a5,10c4 <main_loop+0x9c>
C:\MRS_DATA\workspace\CH583M_Watch\obj/../src/app.c:279
            Timer_Task_Cnt[0] = Timer_Task_Tick[0];
    1062:	409c                	lw	a5,0(s1)
    1064:	82f1aa23          	sw	a5,-1996(gp) # 20000d14 <Timer_Task_Cnt>
C:\MRS_DATA\workspace\CH583M_Watch\obj/../src/app.c:280
            if(FUNC_KEY_GET() == CODE_CLICK)
    1068:	0009c783          	lbu	a5,0(s3)
    106c:	4705                	li	a4,1
    106e:	12f71f63          	bne	a4,a5,11ac <main_loop+0x184>
C:\MRS_DATA\workspace\CH583M_Watch\obj/../src/app.c:282
                PRINT("单击\n");
    1072:	00003517          	auipc	a0,0x3
    1076:	ea250513          	addi	a0,a0,-350 # 3f14 <_sbrk+0x34>
    107a:	0a3010ef          	jal	ra,291c <puts>
C:\MRS_DATA\workspace\CH583M_Watch\obj/../src/app.c:283
                oled_menu_handle(&menu_des, &screen_des, MENU_CTR_CODE_NEXT);
    107e:	4605                	li	a2,1
C:\MRS_DATA\workspace\CH583M_Watch\obj/../src/app.c:288
                oled_menu_handle(&menu_des, &screen_des, MENU_CTR_CODE_PRE);
    1080:	20000597          	auipc	a1,0x20000
    1084:	c6458593          	addi	a1,a1,-924 # 20000ce4 <screen_des>
    1088:	20000517          	auipc	a0,0x20000
    108c:	bb850513          	addi	a0,a0,-1096 # 20000c40 <menu_des>
    1090:	287000ef          	jal	ra,1b16 <oled_menu_handle>
C:\MRS_DATA\workspace\CH583M_Watch\obj/../src/app.c:298
            FUNC_KEY_CLEAR();
    1094:	80018e23          	sb	zero,-2020(gp) # 20000cfc <func_key_fun>
C:\MRS_DATA\workspace\CH583M_Watch\obj/../src/app.c:299
            if(ENC1_GET() == ENC_CODE_LEFT)
    1098:	000b4783          	lbu	a5,0(s6) # 10000 <_data_lma+0xaa6c>
    109c:	4705                	li	a4,1
C:\MRS_DATA\workspace\CH583M_Watch\obj/../src/app.c:301
                PRINT("左旋\n");
    109e:	00003517          	auipc	a0,0x3
    10a2:	e9650513          	addi	a0,a0,-362 # 3f34 <_sbrk+0x54>
C:\MRS_DATA\workspace\CH583M_Watch\obj/../src/app.c:299
            if(ENC1_GET() == ENC_CODE_LEFT)
    10a6:	00f70b63          	beq	a4,a5,10bc <main_loop+0x94>
C:\MRS_DATA\workspace\CH583M_Watch\obj/../src/app.c:303
            else if(ENC1_GET() == ENC_CODE_RIGHT)
    10aa:	000b4783          	lbu	a5,0(s6)
    10ae:	4709                	li	a4,2
    10b0:	00f71863          	bne	a4,a5,10c0 <main_loop+0x98>
C:\MRS_DATA\workspace\CH583M_Watch\obj/../src/app.c:305
                PRINT("右旋\n");
    10b4:	00003517          	auipc	a0,0x3
    10b8:	e8850513          	addi	a0,a0,-376 # 3f3c <_sbrk+0x5c>
    10bc:	061010ef          	jal	ra,291c <puts>
C:\MRS_DATA\workspace\CH583M_Watch\obj/../src/app.c:307
            ENC1_CLEAR();
    10c0:	80018c23          	sb	zero,-2024(gp) # 20000cf8 <enc_code>
C:\MRS_DATA\workspace\CH583M_Watch\obj/../src/app.c:310
        if(!Timer_Task_Cnt[1])
    10c4:	405c                	lw	a5,4(s0)
    10c6:	efbd                	bnez	a5,1144 <main_loop+0x11c>
C:\MRS_DATA\workspace\CH583M_Watch\obj/../src/app.c:312
            Timer_Task_Cnt[1] = Timer_Task_Tick[1];
    10c8:	40dc                	lw	a5,4(s1)
    10ca:	84818913          	addi	s2,gp,-1976 # 20000d28 <adc_buf>
    10ce:	c3018b93          	addi	s7,gp,-976 # 20001110 <adc_buf+0x3e8>
    10d2:	82f1ac23          	sw	a5,-1992(gp) # 20000d18 <Timer_Task_Cnt+0x4>
C:\MRS_DATA\workspace\CH583M_Watch\obj/../src/app.c:315
            R8_ADC_CHANNEL = 11;//vol 3020 4.90V 2000 3.3V
    10d6:	472d                	li	a4,11
    10d8:	400017b7          	lui	a5,0x40001
    10dc:	04e78c23          	sb	a4,88(a5) # 40001058 <_eusrstack+0x1fff9058>
    10e0:	8c4a                	mv	s8,s2
C:\MRS_DATA\workspace\CH583M_Watch\obj/../src/app.c:318 (discriminator 3)
                adc_buf[0][i] = ADC_ExcutSingleConver();
    10e2:	34a010ef          	jal	ra,242c <ADC_ExcutSingleConver>
    10e6:	00ac1023          	sh	a0,0(s8)
    10ea:	0c09                	addi	s8,s8,2
C:\MRS_DATA\workspace\CH583M_Watch\obj/../src/app.c:316 (discriminator 3)
            for(i=0; i<500; i++)
    10ec:	ff7c1be3          	bne	s8,s7,10e2 <main_loop+0xba>
    10f0:	84818713          	addi	a4,gp,-1976 # 20000d28 <adc_buf>
C:\MRS_DATA\workspace\CH583M_Watch\obj/../src/app.c:320
            sum = 0;
    10f4:	4781                	li	a5,0
C:\MRS_DATA\workspace\CH583M_Watch\obj/../src/app.c:323 (discriminator 3)
                sum += adc_buf[0][i];
    10f6:	00075683          	lhu	a3,0(a4)
    10fa:	0709                	addi	a4,a4,2
    10fc:	97b6                	add	a5,a5,a3
C:\MRS_DATA\workspace\CH583M_Watch\obj/../src/app.c:321 (discriminator 3)
            for(i=0; i<500; i++)
    10fe:	ff771ce3          	bne	a4,s7,10f6 <main_loop+0xce>
C:\MRS_DATA\workspace\CH583M_Watch\obj/../src/app.c:325
            adc_buf[0][500] = sum/500;
    1102:	1f400713          	li	a4,500
    1106:	02e7d7b3          	divu	a5,a5,a4
C:\MRS_DATA\workspace\CH583M_Watch\obj/../src/app.c:326
            R8_ADC_CHANNEL = 1;//temp
    110a:	84818c13          	addi	s8,gp,-1976 # 20000d28 <adc_buf>
C:\MRS_DATA\workspace\CH583M_Watch\obj/../src/app.c:325
            adc_buf[0][500] = sum/500;
    110e:	c2f19823          	sh	a5,-976(gp) # 20001110 <adc_buf+0x3e8>
C:\MRS_DATA\workspace\CH583M_Watch\obj/../src/app.c:326
            R8_ADC_CHANNEL = 1;//temp
    1112:	4705                	li	a4,1
    1114:	400017b7          	lui	a5,0x40001
    1118:	04e78c23          	sb	a4,88(a5) # 40001058 <_eusrstack+0x1fff9058>
C:\MRS_DATA\workspace\CH583M_Watch\obj/../src/app.c:329 (discriminator 3)
                adc_buf[1][i] = ADC_ExcutSingleConver();
    111c:	310010ef          	jal	ra,242c <ADC_ExcutSingleConver>
    1120:	3eac1523          	sh	a0,1002(s8)
    1124:	0c09                	addi	s8,s8,2
C:\MRS_DATA\workspace\CH583M_Watch\obj/../src/app.c:327 (discriminator 3)
            for(i=0; i<500; i++)
    1126:	ff7c1be3          	bne	s8,s7,111c <main_loop+0xf4>
C:\MRS_DATA\workspace\CH583M_Watch\obj/../src/app.c:331
            sum = 0;
    112a:	4781                	li	a5,0
C:\MRS_DATA\workspace\CH583M_Watch\obj/../src/app.c:334 (discriminator 3)
                sum += adc_buf[1][i];
    112c:	3ea95703          	lhu	a4,1002(s2)
    1130:	0909                	addi	s2,s2,2
    1132:	97ba                	add	a5,a5,a4
C:\MRS_DATA\workspace\CH583M_Watch\obj/../src/app.c:332 (discriminator 3)
            for(i=0; i<500; i++)
    1134:	ff791ce3          	bne	s2,s7,112c <main_loop+0x104>
C:\MRS_DATA\workspace\CH583M_Watch\obj/../src/app.c:336
            adc_buf[1][500] = sum/500;
    1138:	1f400713          	li	a4,500
    113c:	02e7d7b3          	divu	a5,a5,a4
    1140:	00f19d23          	sh	a5,26(gp) # 200014fa <__global_pointer$+0x1a>
C:\MRS_DATA\workspace\CH583M_Watch\obj/../src/app.c:339
        if(!Timer_Task_Cnt[2])
    1144:	441c                	lw	a5,8(s0)
    1146:	e781                	bnez	a5,114e <main_loop+0x126>
C:\MRS_DATA\workspace\CH583M_Watch\obj/../src/app.c:341
            Timer_Task_Cnt[2] = Timer_Task_Tick[2];
    1148:	449c                	lw	a5,8(s1)
    114a:	82f1ae23          	sw	a5,-1988(gp) # 20000d1c <Timer_Task_Cnt+0x8>
C:\MRS_DATA\workspace\CH583M_Watch\obj/../src/app.c:344
        if(!Timer_Task_Cnt[3])
    114e:	445c                	lw	a5,12(s0)
    1150:	eb91                	bnez	a5,1164 <main_loop+0x13c>
C:\MRS_DATA\workspace\CH583M_Watch\obj/../src/app.c:346
            Timer_Task_Cnt[3] = Timer_Task_Tick[3];
    1152:	44dc                	lw	a5,12(s1)
C:\MRS_DATA\workspace\CH583M_Watch\obj/../src/app.c:348
            app_uart_tx_data("hello world\n",12);
    1154:	45b1                	li	a1,12
    1156:	00003517          	auipc	a0,0x3
    115a:	dee50513          	addi	a0,a0,-530 # 3f44 <_sbrk+0x64>
C:\MRS_DATA\workspace\CH583M_Watch\obj/../src/app.c:346
            Timer_Task_Cnt[3] = Timer_Task_Tick[3];
    115e:	84f1a023          	sw	a5,-1984(gp) # 20000d20 <Timer_Task_Cnt+0xc>
C:\MRS_DATA\workspace\CH583M_Watch\obj/../src/app.c:348
            app_uart_tx_data("hello world\n",12);
    1162:	313d                	jal	d90 <app_uart_tx_data>
C:\MRS_DATA\workspace\CH583M_Watch\obj/../src/app.c:351
        if(!Timer_Task_Cnt[4])
    1164:	481c                	lw	a5,16(s0)
    1166:	e3a9                	bnez	a5,11a8 <main_loop+0x180>
C:\MRS_DATA\workspace\CH583M_Watch\obj/../src/app.c:353
            Timer_Task_Cnt[4] = Timer_Task_Tick[4];
    1168:	489c                	lw	a5,16(s1)
C:\MRS_DATA\workspace\CH583M_Watch\obj/../src/app.c:355
            OLED_Clear(0);
    116a:	4501                	li	a0,0
C:\MRS_DATA\workspace\CH583M_Watch\obj/../src/app.c:353
            Timer_Task_Cnt[4] = Timer_Task_Tick[4];
    116c:	84f1a223          	sw	a5,-1980(gp) # 20000d24 <Timer_Task_Cnt+0x10>
C:\MRS_DATA\workspace\CH583M_Watch\obj/../src/app.c:355
            OLED_Clear(0);
    1170:	26dd                	jal	1556 <OLED_Clear>
C:\MRS_DATA\workspace\CH583M_Watch\obj/../src/app.c:356
            uint32_t sec = uwTick / 1000 + 19 * 3600 + 59 * 60 + 56;
    1172:	81418793          	addi	a5,gp,-2028 # 20000cf4 <uwTick>
    1176:	4390                	lw	a2,0(a5)
    1178:	3e800713          	li	a4,1000
C:\MRS_DATA\workspace\CH583M_Watch\obj/../src/app.c:357
            Time_Display((sec / 3600) % 24, (sec / 60) % 60, sec % 60, uwTick % 1000);
    117c:	4394                	lw	a3,0(a5)
C:\MRS_DATA\workspace\CH583M_Watch\obj/../src/app.c:356
            uint32_t sec = uwTick / 1000 + 19 * 3600 + 59 * 60 + 56;
    117e:	02e65633          	divu	a2,a2,a4
C:\MRS_DATA\workspace\CH583M_Watch\obj/../src/app.c:357
            Time_Display((sec / 3600) % 24, (sec / 60) % 60, sec % 60, uwTick % 1000);
    1182:	03c00793          	li	a5,60
C:\MRS_DATA\workspace\CH583M_Watch\obj/../src/app.c:356
            uint32_t sec = uwTick / 1000 + 19 * 3600 + 59 * 60 + 56;
    1186:	9652                	add	a2,a2,s4
C:\MRS_DATA\workspace\CH583M_Watch\obj/../src/app.c:357
            Time_Display((sec / 3600) % 24, (sec / 60) % 60, sec % 60, uwTick % 1000);
    1188:	02f655b3          	divu	a1,a2,a5
    118c:	03565533          	divu	a0,a2,s5
    1190:	02f5f5b3          	remu	a1,a1,a5
    1194:	02f67633          	remu	a2,a2,a5
    1198:	47e1                	li	a5,24
    119a:	02e6f6b3          	remu	a3,a3,a4
    119e:	02f57533          	remu	a0,a0,a5
    11a2:	24b000ef          	jal	ra,1bec <Time_Display>
C:\MRS_DATA\workspace\CH583M_Watch\obj/../src/app.c:358
            OLED_Refresh_Gram();
    11a6:	2cbd                	jal	1424 <OLED_Refresh_Gram>
C:\MRS_DATA\workspace\CH583M_Watch\obj/../src/app.c:360
        }
        app_uart_process();
    11a8:	3301                	jal	ea8 <app_uart_process>
C:\MRS_DATA\workspace\CH583M_Watch\obj/../src/app.c:277
        if(!Timer_Task_Cnt[0])
    11aa:	bd55                	j	105e <main_loop+0x36>
C:\MRS_DATA\workspace\CH583M_Watch\obj/../src/app.c:285
            else if (FUNC_KEY_GET() == CODE_D_CLICK)
    11ac:	0009c783          	lbu	a5,0(s3)
    11b0:	4709                	li	a4,2
    11b2:	00f71a63          	bne	a4,a5,11c6 <main_loop+0x19e>
C:\MRS_DATA\workspace\CH583M_Watch\obj/../src/app.c:287
                PRINT("双击\n");
    11b6:	00003517          	auipc	a0,0x3
    11ba:	d6650513          	addi	a0,a0,-666 # 3f1c <_sbrk+0x3c>
    11be:	75e010ef          	jal	ra,291c <puts>
C:\MRS_DATA\workspace\CH583M_Watch\obj/../src/app.c:288
                oled_menu_handle(&menu_des, &screen_des, MENU_CTR_CODE_PRE);
    11c2:	4609                	li	a2,2
    11c4:	bd75                	j	1080 <main_loop+0x58>
C:\MRS_DATA\workspace\CH583M_Watch\obj/../src/app.c:290
            else if (FUNC_KEY_GET() == CODE_L_CLICK)
    11c6:	0009c783          	lbu	a5,0(s3)
    11ca:	470d                	li	a4,3
C:\MRS_DATA\workspace\CH583M_Watch\obj/../src/app.c:292
                PRINT("长按\n");
    11cc:	00003517          	auipc	a0,0x3
    11d0:	d5850513          	addi	a0,a0,-680 # 3f24 <_sbrk+0x44>
C:\MRS_DATA\workspace\CH583M_Watch\obj/../src/app.c:290
            else if (FUNC_KEY_GET() == CODE_L_CLICK)
    11d4:	00f70b63          	beq	a4,a5,11ea <main_loop+0x1c2>
C:\MRS_DATA\workspace\CH583M_Watch\obj/../src/app.c:294
            else if (FUNC_KEY_GET() == CODE_T_CLICK)
    11d8:	0009c783          	lbu	a5,0(s3)
    11dc:	4711                	li	a4,4
    11de:	eaf71be3          	bne	a4,a5,1094 <main_loop+0x6c>
C:\MRS_DATA\workspace\CH583M_Watch\obj/../src/app.c:296
                PRINT("连击\n");
    11e2:	00003517          	auipc	a0,0x3
    11e6:	d4a50513          	addi	a0,a0,-694 # 3f2c <_sbrk+0x4c>
    11ea:	732010ef          	jal	ra,291c <puts>
    11ee:	b55d                	j	1094 <main_loop+0x6c>

000011f0 <app_drv_fifo_init>:
app_drv_fifo_init():
C:\MRS_DATA\workspace\CH583M\obj/../src/fifo.c:28
    11f0:	87aa                	mv	a5,a0
C:\MRS_DATA\workspace\CH583M\obj/../src/fifo.c:29
    11f2:	c205                	beqz	a2,1212 <app_drv_fifo_init+0x22>
C:\MRS_DATA\workspace\CH583M\obj/../src/fifo.c:33
    11f4:	fff60713          	addi	a4,a2,-1
    11f8:	00c776b3          	and	a3,a4,a2
C:\MRS_DATA\workspace\CH583M\obj/../src/fifo.c:31
    11fc:	4505                	li	a0,1
C:\MRS_DATA\workspace\CH583M\obj/../src/fifo.c:33
    11fe:	ea99                	bnez	a3,1214 <app_drv_fifo_init+0x24>
C:\MRS_DATA\workspace\CH583M\obj/../src/fifo.c:37
    1200:	0007a023          	sw	zero,0(a5)
C:\MRS_DATA\workspace\CH583M\obj/../src/fifo.c:39
    1204:	c3cc                	sw	a1,4(a5)
C:\MRS_DATA\workspace\CH583M\obj/../src/fifo.c:40
    1206:	00c79423          	sh	a2,8(a5)
C:\MRS_DATA\workspace\CH583M\obj/../src/fifo.c:41
    120a:	00e79523          	sh	a4,10(a5)
C:\MRS_DATA\workspace\CH583M\obj/../src/fifo.c:42
    120e:	4501                	li	a0,0
    1210:	8082                	ret
C:\MRS_DATA\workspace\CH583M\obj/../src/fifo.c:31
    1212:	4505                	li	a0,1
C:\MRS_DATA\workspace\CH583M\obj/../src/fifo.c:43
    1214:	8082                	ret

00001216 <app_drv_fifo_write>:
app_drv_fifo_write():
C:\MRS_DATA\workspace\CH583M\obj/../src/fifo.c:76
    1216:	87aa                	mv	a5,a0
C:\MRS_DATA\workspace\CH583M\obj/../src/fifo.c:79
    1218:	4511                	li	a0,4
C:\MRS_DATA\workspace\CH583M\obj/../src/fifo.c:77
    121a:	c7b5                	beqz	a5,1286 <app_drv_fifo_write+0x70>
C:\MRS_DATA\workspace\CH583M\obj/../src/fifo.c:81
    121c:	c62d                	beqz	a2,1286 <app_drv_fifo_write+0x70>
C:\MRS_DATA\workspace\CH583M\obj/../src/fifo.c:86
    121e:	0007d683          	lhu	a3,0(a5)
    1222:	0087d703          	lhu	a4,8(a5)
C:\MRS_DATA\workspace\CH583M\obj/../src/fifo.c:94
    1226:	450d                	li	a0,3
C:\MRS_DATA\workspace\CH583M\obj/../src/fifo.c:86
    1228:	9736                	add	a4,a4,a3
    122a:	0027d683          	lhu	a3,2(a5)
    122e:	8f15                	sub	a4,a4,a3
    1230:	0742                	slli	a4,a4,0x10
    1232:	8341                	srli	a4,a4,0x10
C:\MRS_DATA\workspace\CH583M\obj/../src/fifo.c:92
    1234:	cb29                	beqz	a4,1286 <app_drv_fifo_write+0x70>
C:\MRS_DATA\workspace\CH583M\obj/../src/fifo.c:100
    1236:	4501                	li	a0,0
C:\MRS_DATA\workspace\CH583M\obj/../src/fifo.c:98
    1238:	c5b9                	beqz	a1,1286 <app_drv_fifo_write+0x70>
C:\MRS_DATA\workspace\CH583M\obj/../src/fifo.c:89
    123a:	00065683          	lhu	a3,0(a2)
    123e:	00d77363          	bgeu	a4,a3,1244 <app_drv_fifo_write+0x2e>
    1242:	86ba                	mv	a3,a4
    1244:	06c2                	slli	a3,a3,0x10
    1246:	82c1                	srli	a3,a3,0x10
    1248:	4701                	li	a4,0
C:\MRS_DATA\workspace\CH583M\obj/../src/fifo.c:103 (discriminator 1)
    124a:	01071513          	slli	a0,a4,0x10
    124e:	8141                	srli	a0,a0,0x10
    1250:	00d56663          	bltu	a0,a3,125c <app_drv_fifo_write+0x46>
C:\MRS_DATA\workspace\CH583M\obj/../src/fifo.c:109
    1254:	00d61023          	sh	a3,0(a2)
C:\MRS_DATA\workspace\CH583M\obj/../src/fifo.c:110
    1258:	4501                	li	a0,0
    125a:	8082                	ret
C:\MRS_DATA\workspace\CH583M\obj/../src/fifo.c:106 (discriminator 3)
    125c:	00e58533          	add	a0,a1,a4
    1260:	00054883          	lbu	a7,0(a0)
    1264:	00a7d803          	lhu	a6,10(a5)
    1268:	0027d503          	lhu	a0,2(a5)
    126c:	0705                	addi	a4,a4,1
    126e:	01057833          	and	a6,a0,a6
    1272:	43c8                	lw	a0,4(a5)
    1274:	9542                	add	a0,a0,a6
    1276:	01150023          	sb	a7,0(a0)
C:\MRS_DATA\workspace\CH583M\obj/../src/fifo.c:107 (discriminator 3)
    127a:	0027d503          	lhu	a0,2(a5)
    127e:	0505                	addi	a0,a0,1
    1280:	00a79123          	sh	a0,2(a5)
    1284:	b7d9                	j	124a <app_drv_fifo_write+0x34>
C:\MRS_DATA\workspace\CH583M\obj/../src/fifo.c:111
    1286:	8082                	ret

00001288 <app_drv_fifo_write_from_same_addr>:
app_drv_fifo_write_from_same_addr():
C:\MRS_DATA\workspace\CH583M\obj/../src/fifo.c:115
    1288:	872a                	mv	a4,a0
C:\MRS_DATA\workspace\CH583M\obj/../src/fifo.c:116
    128a:	cd29                	beqz	a0,12e4 <app_drv_fifo_write_from_same_addr+0x5c>
C:\MRS_DATA\workspace\CH583M\obj/../src/fifo.c:120
    128c:	00055683          	lhu	a3,0(a0)
    1290:	00a55783          	lhu	a5,10(a0)
    1294:	97b6                	add	a5,a5,a3
    1296:	00255683          	lhu	a3,2(a0)
    129a:	0785                	addi	a5,a5,1
    129c:	8f95                	sub	a5,a5,a3
    129e:	07c2                	slli	a5,a5,0x10
    12a0:	83c1                	srli	a5,a5,0x10
C:\MRS_DATA\workspace\CH583M\obj/../src/fifo.c:123
    12a2:	86be                	mv	a3,a5
    12a4:	00f67363          	bgeu	a2,a5,12aa <app_drv_fifo_write_from_same_addr+0x22>
    12a8:	86b2                	mv	a3,a2
    12aa:	06c2                	slli	a3,a3,0x10
    12ac:	82c1                	srli	a3,a3,0x10
C:\MRS_DATA\workspace\CH583M\obj/../src/fifo.c:128
    12ae:	450d                	li	a0,3
C:\MRS_DATA\workspace\CH583M\obj/../src/fifo.c:126
    12b0:	cb9d                	beqz	a5,12e6 <app_drv_fifo_write_from_same_addr+0x5e>
C:\MRS_DATA\workspace\CH583M\obj/../src/fifo.c:131
    12b2:	4781                	li	a5,0
C:\MRS_DATA\workspace\CH583M\obj/../src/fifo.c:131 (discriminator 1)
    12b4:	00d79463          	bne	a5,a3,12bc <app_drv_fifo_write_from_same_addr+0x34>
C:\MRS_DATA\workspace\CH583M\obj/../src/fifo.c:137
    12b8:	4501                	li	a0,0
    12ba:	8082                	ret
C:\MRS_DATA\workspace\CH583M\obj/../src/fifo.c:134 (discriminator 3)
    12bc:	00275603          	lhu	a2,2(a4)
    12c0:	00a75503          	lhu	a0,10(a4)
    12c4:	0005c803          	lbu	a6,0(a1)
C:\MRS_DATA\workspace\CH583M\obj/../src/fifo.c:131 (discriminator 3)
    12c8:	0785                	addi	a5,a5,1
C:\MRS_DATA\workspace\CH583M\obj/../src/fifo.c:134 (discriminator 3)
    12ca:	8d71                	and	a0,a0,a2
    12cc:	4350                	lw	a2,4(a4)
C:\MRS_DATA\workspace\CH583M\obj/../src/fifo.c:131 (discriminator 3)
    12ce:	07c2                	slli	a5,a5,0x10
    12d0:	83c1                	srli	a5,a5,0x10
C:\MRS_DATA\workspace\CH583M\obj/../src/fifo.c:134 (discriminator 3)
    12d2:	962a                	add	a2,a2,a0
    12d4:	01060023          	sb	a6,0(a2)
C:\MRS_DATA\workspace\CH583M\obj/../src/fifo.c:135 (discriminator 3)
    12d8:	00275603          	lhu	a2,2(a4)
    12dc:	0605                	addi	a2,a2,1
    12de:	00c71123          	sh	a2,2(a4)
    12e2:	bfc9                	j	12b4 <app_drv_fifo_write_from_same_addr+0x2c>
C:\MRS_DATA\workspace\CH583M\obj/../src/fifo.c:118
    12e4:	4511                	li	a0,4
C:\MRS_DATA\workspace\CH583M\obj/../src/fifo.c:138
    12e6:	8082                	ret

000012e8 <app_drv_fifo_read>:
app_drv_fifo_read():
C:\MRS_DATA\workspace\CH583M\obj/../src/fifo.c:142
    12e8:	87aa                	mv	a5,a0
C:\MRS_DATA\workspace\CH583M\obj/../src/fifo.c:145
    12ea:	4511                	li	a0,4
C:\MRS_DATA\workspace\CH583M\obj/../src/fifo.c:143
    12ec:	cfb1                	beqz	a5,1348 <app_drv_fifo_read+0x60>
C:\MRS_DATA\workspace\CH583M\obj/../src/fifo.c:147
    12ee:	ce29                	beqz	a2,1348 <app_drv_fifo_read+0x60>
fifo_length():
C:\MRS_DATA\workspace\CH583M\obj/../src/fifo.c:18
    12f0:	0007d683          	lhu	a3,0(a5)
    12f4:	0027d703          	lhu	a4,2(a5)
    12f8:	8f15                	sub	a4,a4,a3
app_drv_fifo_read():
C:\MRS_DATA\workspace\CH583M\obj/../src/fifo.c:154
    12fa:	00065683          	lhu	a3,0(a2)
fifo_length():
C:\MRS_DATA\workspace\CH583M\obj/../src/fifo.c:18
    12fe:	0742                	slli	a4,a4,0x10
    1300:	8341                	srli	a4,a4,0x10
app_drv_fifo_read():
C:\MRS_DATA\workspace\CH583M\obj/../src/fifo.c:154
    1302:	00d77363          	bgeu	a4,a3,1308 <app_drv_fifo_read+0x20>
    1306:	86ba                	mv	a3,a4
    1308:	06c2                	slli	a3,a3,0x10
    130a:	82c1                	srli	a3,a3,0x10
C:\MRS_DATA\workspace\CH583M\obj/../src/fifo.c:158
    130c:	4509                	li	a0,2
C:\MRS_DATA\workspace\CH583M\obj/../src/fifo.c:156
    130e:	cf0d                	beqz	a4,1348 <app_drv_fifo_read+0x60>
C:\MRS_DATA\workspace\CH583M\obj/../src/fifo.c:161
    1310:	4701                	li	a4,0
C:\MRS_DATA\workspace\CH583M\obj/../src/fifo.c:161 (discriminator 1)
    1312:	00d76663          	bltu	a4,a3,131e <app_drv_fifo_read+0x36>
C:\MRS_DATA\workspace\CH583M\obj/../src/fifo.c:168
    1316:	00d61023          	sh	a3,0(a2)
C:\MRS_DATA\workspace\CH583M\obj/../src/fifo.c:169
    131a:	4501                	li	a0,0
    131c:	8082                	ret
C:\MRS_DATA\workspace\CH583M\obj/../src/fifo.c:164 (discriminator 3)
    131e:	0007d503          	lhu	a0,0(a5)
    1322:	00a7d803          	lhu	a6,10(a5)
    1326:	01057833          	and	a6,a0,a6
    132a:	43c8                	lw	a0,4(a5)
    132c:	9542                	add	a0,a0,a6
    132e:	00054803          	lbu	a6,0(a0)
    1332:	00e58533          	add	a0,a1,a4
C:\MRS_DATA\workspace\CH583M\obj/../src/fifo.c:161 (discriminator 3)
    1336:	0705                	addi	a4,a4,1
C:\MRS_DATA\workspace\CH583M\obj/../src/fifo.c:164 (discriminator 3)
    1338:	01050023          	sb	a6,0(a0)
C:\MRS_DATA\workspace\CH583M\obj/../src/fifo.c:165 (discriminator 3)
    133c:	0007d503          	lhu	a0,0(a5)
    1340:	0505                	addi	a0,a0,1
    1342:	00a79023          	sh	a0,0(a5)
    1346:	b7f1                	j	1312 <app_drv_fifo_read+0x2a>
C:\MRS_DATA\workspace\CH583M\obj/../src/fifo.c:170
    1348:	8082                	ret

0000134a <app_drv_fifo_read_to_same_addr>:
app_drv_fifo_read_to_same_addr():
C:\MRS_DATA\workspace\CH583M\obj/../src/fifo.c:175
    134a:	c529                	beqz	a0,1394 <app_drv_fifo_read_to_same_addr+0x4a>
fifo_length():
C:\MRS_DATA\workspace\CH583M\obj/../src/fifo.c:18
    134c:	00055703          	lhu	a4,0(a0)
    1350:	00255783          	lhu	a5,2(a0)
    1354:	8f99                	sub	a5,a5,a4
app_drv_fifo_read_to_same_addr():
C:\MRS_DATA\workspace\CH583M\obj/../src/fifo.c:182
    1356:	873e                	mv	a4,a5
    1358:	07c2                	slli	a5,a5,0x10
    135a:	83c1                	srli	a5,a5,0x10
    135c:	00f67363          	bgeu	a2,a5,1362 <app_drv_fifo_read_to_same_addr+0x18>
    1360:	8732                	mv	a4,a2
    1362:	0742                	slli	a4,a4,0x10
    1364:	8341                	srli	a4,a4,0x10
C:\MRS_DATA\workspace\CH583M\obj/../src/fifo.c:184
    1366:	4781                	li	a5,0
C:\MRS_DATA\workspace\CH583M\obj/../src/fifo.c:184 (discriminator 1)
    1368:	00e7e463          	bltu	a5,a4,1370 <app_drv_fifo_read_to_same_addr+0x26>
C:\MRS_DATA\workspace\CH583M\obj/../src/fifo.c:190
    136c:	4501                	li	a0,0
    136e:	8082                	ret
C:\MRS_DATA\workspace\CH583M\obj/../src/fifo.c:187 (discriminator 3)
    1370:	00055683          	lhu	a3,0(a0)
    1374:	00a55603          	lhu	a2,10(a0)
C:\MRS_DATA\workspace\CH583M\obj/../src/fifo.c:184 (discriminator 3)
    1378:	0785                	addi	a5,a5,1
C:\MRS_DATA\workspace\CH583M\obj/../src/fifo.c:187 (discriminator 3)
    137a:	8e75                	and	a2,a2,a3
    137c:	4154                	lw	a3,4(a0)
    137e:	96b2                	add	a3,a3,a2
    1380:	0006c683          	lbu	a3,0(a3)
    1384:	00d58023          	sb	a3,0(a1)
C:\MRS_DATA\workspace\CH583M\obj/../src/fifo.c:188 (discriminator 3)
    1388:	00055683          	lhu	a3,0(a0)
    138c:	0685                	addi	a3,a3,1
    138e:	00d51023          	sh	a3,0(a0)
    1392:	bfd9                	j	1368 <app_drv_fifo_read_to_same_addr+0x1e>
C:\MRS_DATA\workspace\CH583M\obj/../src/fifo.c:177
    1394:	4511                	li	a0,4
C:\MRS_DATA\workspace\CH583M\obj/../src/fifo.c:191
    1396:	8082                	ret

00001398 <Key_Init>:
Key_Init():
C:\MRS_DATA\workspace\CH583M\obj/../src/key.c:16
    1398:	80018d23          	sb	zero,-2022(gp) # 20000cfa <func_key_cnt>
C:\MRS_DATA\workspace\CH583M\obj/../src/key.c:15
    139c:	1141                	addi	sp,sp,-16
C:\MRS_DATA\workspace\CH583M\obj/../src/key.c:17
    139e:	80018da3          	sb	zero,-2021(gp) # 20000cfb <func_key_code>
C:\MRS_DATA\workspace\CH583M\obj/../src/key.c:20
    13a2:	4585                	li	a1,1
    13a4:	4505                	li	a0,1
C:\MRS_DATA\workspace\CH583M\obj/../src/key.c:15
    13a6:	c606                	sw	ra,12(sp)
C:\MRS_DATA\workspace\CH583M\obj/../src/key.c:18
    13a8:	80018e23          	sb	zero,-2020(gp) # 20000cfc <func_key_fun>
C:\MRS_DATA\workspace\CH583M\obj/../src/key.c:20
    13ac:	146010ef          	jal	ra,24f2 <GPIOB_ModeCfg>
C:\MRS_DATA\workspace\CH583M\obj/../src/key.c:21
    13b0:	4585                	li	a1,1
    13b2:	4509                	li	a0,2
    13b4:	13e010ef          	jal	ra,24f2 <GPIOB_ModeCfg>
C:\MRS_DATA\workspace\CH583M\obj/../src/key.c:23
    13b8:	40b2                	lw	ra,12(sp)
C:\MRS_DATA\workspace\CH583M\obj/../src/key.c:22
    13ba:	4585                	li	a1,1
    13bc:	00400537          	lui	a0,0x400
C:\MRS_DATA\workspace\CH583M\obj/../src/key.c:23
    13c0:	0141                	addi	sp,sp,16
C:\MRS_DATA\workspace\CH583M\obj/../src/key.c:22
    13c2:	1300106f          	j	24f2 <GPIOB_ModeCfg>

000013c6 <OLED_WR_Byte>:
OLED_WR_Byte():
C:\MRS_DATA\workspace\CH583M_Watch\obj/../src/oled.c:643

//向SSD1306写入一个字节。
//dat:要写入的数据/命令
//cmd:数据/命令标志 0,表示命令;1,表示数据;
void OLED_WR_Byte(uint8_t dat,uint8_t cmd)
{
    13c6:	1141                	addi	sp,sp,-16
    13c8:	c606                	sw	ra,12(sp)
    13ca:	c422                	sw	s0,8(sp)
    13cc:	c226                	sw	s1,4(sp)
C:\MRS_DATA\workspace\CH583M_Watch\obj/../src/oled.c:647
    uint8_t i;
    if(cmd) //写命令
    {
        OLED_DC_Set();
    13ce:	40001737          	lui	a4,0x40001
C:\MRS_DATA\workspace\CH583M_Watch\obj/../src/oled.c:645
    if(cmd) //写命令
    13d2:	c1b1                	beqz	a1,1416 <OLED_WR_Byte+0x50>
C:\MRS_DATA\workspace\CH583M_Watch\obj/../src/oled.c:647
        OLED_DC_Set();
    13d4:	0c872783          	lw	a5,200(a4) # 400010c8 <_eusrstack+0x1fff90c8>
    13d8:	66a1                	lui	a3,0x8
    13da:	8fd5                	or	a5,a5,a3
    13dc:	0cf72423          	sw	a5,200(a4)
C:\MRS_DATA\workspace\CH583M_Watch\obj/../src/oled.c:653
    }
    else
    {
        OLED_DC_Clr();
    }
    OLED_CS_Clr();
    13e0:	40001437          	lui	s0,0x40001
    13e4:	0cc42703          	lw	a4,204(s0) # 400010cc <_eusrstack+0x1fff90cc>
    13e8:	000204b7          	lui	s1,0x20
    13ec:	8f45                	or	a4,a4,s1
    13ee:	0ce42623          	sw	a4,204(s0)
C:\MRS_DATA\workspace\CH583M_Watch\obj/../src/oled.c:670

        dat<<=1;
    }
    #else
    i = dat;
    SPI0_MasterSendByte(dat);
    13f2:	210010ef          	jal	ra,2602 <SPI0_MasterSendByte>
C:\MRS_DATA\workspace\CH583M_Watch\obj/../src/oled.c:672
    #endif
    OLED_CS_Set();
    13f6:	0c842783          	lw	a5,200(s0)
C:\MRS_DATA\workspace\CH583M_Watch\obj/../src/oled.c:673
    OLED_DC_Set();
    13fa:	6721                	lui	a4,0x8
C:\MRS_DATA\workspace\CH583M_Watch\obj/../src/oled.c:674
}
    13fc:	40b2                	lw	ra,12(sp)
C:\MRS_DATA\workspace\CH583M_Watch\obj/../src/oled.c:672
    OLED_CS_Set();
    13fe:	8fc5                	or	a5,a5,s1
    1400:	0cf42423          	sw	a5,200(s0)
C:\MRS_DATA\workspace\CH583M_Watch\obj/../src/oled.c:673
    OLED_DC_Set();
    1404:	0c842783          	lw	a5,200(s0)
C:\MRS_DATA\workspace\CH583M_Watch\obj/../src/oled.c:674
}
    1408:	4492                	lw	s1,4(sp)
C:\MRS_DATA\workspace\CH583M_Watch\obj/../src/oled.c:673
    OLED_DC_Set();
    140a:	8fd9                	or	a5,a5,a4
    140c:	0cf42423          	sw	a5,200(s0)
C:\MRS_DATA\workspace\CH583M_Watch\obj/../src/oled.c:674
}
    1410:	4422                	lw	s0,8(sp)
    1412:	0141                	addi	sp,sp,16
    1414:	8082                	ret
C:\MRS_DATA\workspace\CH583M_Watch\obj/../src/oled.c:651
        OLED_DC_Clr();
    1416:	0cc72783          	lw	a5,204(a4) # 80cc <_data_lma+0x2b38>
    141a:	66a1                	lui	a3,0x8
    141c:	8fd5                	or	a5,a5,a3
    141e:	0cf72623          	sw	a5,204(a4)
    1422:	bf7d                	j	13e0 <OLED_WR_Byte+0x1a>

00001424 <OLED_Refresh_Gram>:
OLED_Refresh_Gram():
C:\MRS_DATA\workspace\CH583M_Watch\obj/../src/oled.c:592
{
    1424:	1101                	addi	sp,sp,-32
    1426:	cc22                	sw	s0,24(sp)
    1428:	ca26                	sw	s1,20(sp)
    142a:	c84a                	sw	s2,16(sp)
    142c:	c64e                	sw	s3,12(sp)
    142e:	c256                	sw	s5,4(sp)
    1430:	ce06                	sw	ra,28(sp)
    1432:	c452                	sw	s4,8(sp)
    1434:	c05a                	sw	s6,0(sp)
    1436:	4a81                	li	s5,0
    1438:	20002917          	auipc	s2,0x20002
    143c:	adc90913          	addi	s2,s2,-1316 # 20002f14 <oled_ctr>
    1440:	20001417          	auipc	s0,0x20001
    1444:	ad440413          	addi	s0,s0,-1324 # 20001f14 <OLED_GRAM>
C:\MRS_DATA\workspace\CH583M_Watch\obj/../src/oled.c:602
        for(n=0; n<SCREEN_W; n++)
    1448:	08000993          	li	s3,128
C:\MRS_DATA\workspace\CH583M_Watch\obj/../src/oled.c:597
    for(i=0; i<8; i++)
    144c:	44a1                	li	s1,8
C:\MRS_DATA\workspace\CH583M_Watch\obj/../src/oled.c:599
        OLED_WR_Byte (0xb0+i,OLED_CMD);    //设置页地址（0~7）
    144e:	fb0a8513          	addi	a0,s5,-80
    1452:	4581                	li	a1,0
    1454:	0ff57513          	andi	a0,a0,255
    1458:	37bd                	jal	13c6 <OLED_WR_Byte>
C:\MRS_DATA\workspace\CH583M_Watch\obj/../src/oled.c:600
        OLED_WR_Byte (0x02,OLED_CMD);      //设置显示位置―列低地址    1.3-0x02,0.96~0x00
    145a:	4581                	li	a1,0
    145c:	4509                	li	a0,2
    145e:	37a5                	jal	13c6 <OLED_WR_Byte>
    1460:	010a9a13          	slli	s4,s5,0x10
C:\MRS_DATA\workspace\CH583M_Watch\obj/../src/oled.c:601
        OLED_WR_Byte (0x10,OLED_CMD);      //设置显示位置―列高地址
    1464:	4581                	li	a1,0
    1466:	4541                	li	a0,16
    1468:	010a5a13          	srli	s4,s4,0x10
    146c:	3fa9                	jal	13c6 <OLED_WR_Byte>
    146e:	4b01                	li	s6,0
    1470:	010b1793          	slli	a5,s6,0x10
C:\MRS_DATA\workspace\CH583M_Watch\obj/../src/oled.c:604
            if(OLED_MOVE_DIR == 0)
    1474:	20002697          	auipc	a3,0x20002
    1478:	aa66c683          	lbu	a3,-1370(a3) # 20002f1a <oled_ctr+0x6>
    147c:	83c1                	srli	a5,a5,0x10
    147e:	20002717          	auipc	a4,0x20002
    1482:	aa075703          	lhu	a4,-1376(a4) # 20002f1e <oled_ctr+0xa>
    1486:	e2ad                	bnez	a3,14e8 <OLED_Refresh_Gram+0xc4>
C:\MRS_DATA\workspace\CH583M_Watch\obj/../src/oled.c:606
                if((OLED_CUR_POS_Y % 8) == 0)
    1488:	00895683          	lhu	a3,8(s2)
    148c:	00777613          	andi	a2,a4,7
    1490:	830d                	srli	a4,a4,0x3
    1492:	97b6                	add	a5,a5,a3
    1494:	0ff7f793          	andi	a5,a5,255
    1498:	014706b3          	add	a3,a4,s4
    149c:	0792                	slli	a5,a5,0x4
    149e:	8abd                	andi	a3,a3,15
    14a0:	97a2                	add	a5,a5,s0
    14a2:	96be                	add	a3,a3,a5
    14a4:	0006c503          	lbu	a0,0(a3)
C:\MRS_DATA\workspace\CH583M_Watch\obj/../src/oled.c:608
                    OLED_WR_Byte(OLED_GRAM[(n + OLED_CUR_POS_X) % (SCREEN_W * OLED_PAGE_H)][(i + OLED_CUR_POS_Y / 8) % (OLED_PAGE_V * 8)],OLED_DATA);
    14a8:	4585                	li	a1,1
C:\MRS_DATA\workspace\CH583M_Watch\obj/../src/oled.c:606
                if((OLED_CUR_POS_Y % 8) == 0)
    14aa:	ce11                	beqz	a2,14c6 <OLED_Refresh_Gram+0xa2>
C:\MRS_DATA\workspace\CH583M_Watch\obj/../src/oled.c:612
                    cur_data = (((OLED_GRAM[(n + OLED_CUR_POS_X) % (SCREEN_W * OLED_PAGE_H)][(i + OLED_CUR_POS_Y / 8 + 1) % (OLED_PAGE_V * 8)] << 8) | \
    14ac:	9756                	add	a4,a4,s5
    14ae:	0705                	addi	a4,a4,1
    14b0:	8b3d                	andi	a4,a4,15
    14b2:	97ba                	add	a5,a5,a4
    14b4:	0007c783          	lbu	a5,0(a5)
C:\MRS_DATA\workspace\CH583M_Watch\obj/../src/oled.c:615
                    OLED_WR_Byte(cur_data,OLED_DATA);
    14b8:	4585                	li	a1,1
C:\MRS_DATA\workspace\CH583M_Watch\obj/../src/oled.c:612
                    cur_data = (((OLED_GRAM[(n + OLED_CUR_POS_X) % (SCREEN_W * OLED_PAGE_H)][(i + OLED_CUR_POS_Y / 8 + 1) % (OLED_PAGE_V * 8)] << 8) | \
    14ba:	07a2                	slli	a5,a5,0x8
    14bc:	8d5d                	or	a0,a0,a5
C:\MRS_DATA\workspace\CH583M_Watch\obj/../src/oled.c:613
                    OLED_GRAM[(n + OLED_CUR_POS_X) % (SCREEN_W * OLED_PAGE_H)][(i + OLED_CUR_POS_Y / 8) % (OLED_PAGE_V * 8)]) >> (OLED_CUR_POS_Y % 8)) & 0xFF;
    14be:	40c55533          	sra	a0,a0,a2
C:\MRS_DATA\workspace\CH583M_Watch\obj/../src/oled.c:615
                    OLED_WR_Byte(cur_data,OLED_DATA);
    14c2:	0ff57513          	andi	a0,a0,255
    14c6:	0b05                	addi	s6,s6,1
C:\MRS_DATA\workspace\CH583M_Watch\obj/../src/oled.c:620
                OLED_WR_Byte(OLED_GRAM[(n + OLED_CUR_POS_Y) % (SCREEN_W * OLED_PAGE_H)][i + ((OLED_CUR_POS_Y + n) / (SCREEN_W * OLED_PAGE_H)) * 8],OLED_DATA);
    14c8:	3dfd                	jal	13c6 <OLED_WR_Byte>
C:\MRS_DATA\workspace\CH583M_Watch\obj/../src/oled.c:602
        for(n=0; n<SCREEN_W; n++)
    14ca:	fb3b13e3          	bne	s6,s3,1470 <OLED_Refresh_Gram+0x4c>
    14ce:	0a85                	addi	s5,s5,1
C:\MRS_DATA\workspace\CH583M_Watch\obj/../src/oled.c:597 (discriminator 2)
    for(i=0; i<8; i++)
    14d0:	f69a9fe3          	bne	s5,s1,144e <OLED_Refresh_Gram+0x2a>
C:\MRS_DATA\workspace\CH583M_Watch\obj/../src/oled.c:624
}
    14d4:	40f2                	lw	ra,28(sp)
    14d6:	4462                	lw	s0,24(sp)
    14d8:	44d2                	lw	s1,20(sp)
    14da:	4942                	lw	s2,16(sp)
    14dc:	49b2                	lw	s3,12(sp)
    14de:	4a22                	lw	s4,8(sp)
    14e0:	4a92                	lw	s5,4(sp)
    14e2:	4b02                	lw	s6,0(sp)
    14e4:	6105                	addi	sp,sp,32
    14e6:	8082                	ret
C:\MRS_DATA\workspace\CH583M_Watch\obj/../src/oled.c:620
                OLED_WR_Byte(OLED_GRAM[(n + OLED_CUR_POS_Y) % (SCREEN_W * OLED_PAGE_H)][i + ((OLED_CUR_POS_Y + n) / (SCREEN_W * OLED_PAGE_H)) * 8],OLED_DATA);
    14e8:	97ba                	add	a5,a5,a4
    14ea:	975a                	add	a4,a4,s6
    14ec:	0ff7f793          	andi	a5,a5,255
    14f0:	8721                	srai	a4,a4,0x8
    14f2:	0792                	slli	a5,a5,0x4
    14f4:	070e                	slli	a4,a4,0x3
    14f6:	97ba                	add	a5,a5,a4
    14f8:	97a2                	add	a5,a5,s0
    14fa:	97d6                	add	a5,a5,s5
    14fc:	4585                	li	a1,1
    14fe:	0007c503          	lbu	a0,0(a5)
    1502:	b7d1                	j	14c6 <OLED_Refresh_Gram+0xa2>

00001504 <OLED_SetDir>:
OLED_SetDir():
C:\MRS_DATA\workspace\CH583M_Watch\obj/../src/oled.c:692
    OLED_WR_Byte(0X10,OLED_CMD);  //DCDC OFF
    OLED_WR_Byte(0XAE,OLED_CMD);  //DISPLAY OFF
}

void OLED_SetDir(uint8_t para)
{
    1504:	1141                	addi	sp,sp,-16
    1506:	c606                	sw	ra,12(sp)
C:\MRS_DATA\workspace\CH583M_Watch\obj/../src/oled.c:693
    if (para == 1)
    1508:	4785                	li	a5,1
    150a:	00f51a63          	bne	a0,a5,151e <OLED_SetDir+0x1a>
C:\MRS_DATA\workspace\CH583M_Watch\obj/../src/oled.c:695
    {
        OLED_WR_Byte(0xA0,OLED_CMD);/* A0 ：列地址0映射到SEG0; A1 ：列地址127映射到SEG0 */
    150e:	4581                	li	a1,0
    1510:	0a000513          	li	a0,160
C:\MRS_DATA\workspace\CH583M_Watch\obj/../src/oled.c:710
        OLED_WR_Byte(0xA0,OLED_CMD);/* A0 ：列地址0映射到SEG0; A1 ：列地址127映射到SEG0 */
        OLED_WR_Byte(0xC0,OLED_CMD);/* C0 ：正常扫描,从COM0到COM63;  C8 : 反向扫描, 从 COM63至 COM0 */
    }
    else if (para == 3)
    {
        OLED_WR_Byte(0xA1,OLED_CMD);/* A0 ：列地址0映射到SEG0; A1 ：列地址127映射到SEG0 */
    1514:	3d4d                	jal	13c6 <OLED_WR_Byte>
C:\MRS_DATA\workspace\CH583M_Watch\obj/../src/oled.c:711
        OLED_WR_Byte(0xC8,OLED_CMD);/* C0 ：正常扫描,从COM0到COM63;  C8 : 反向扫描, 从 COM63至 COM0 */
    1516:	4581                	li	a1,0
    1518:	0c800513          	li	a0,200
    151c:	a809                	j	152e <OLED_SetDir+0x2a>
C:\MRS_DATA\workspace\CH583M_Watch\obj/../src/oled.c:698
    else if (para == 0)
    151e:	e919                	bnez	a0,1534 <OLED_SetDir+0x30>
C:\MRS_DATA\workspace\CH583M_Watch\obj/../src/oled.c:700
        OLED_WR_Byte(0xA1,OLED_CMD);/* A0 ：列地址0映射到SEG0; A1 ：列地址127映射到SEG0 */
    1520:	4581                	li	a1,0
    1522:	0a100513          	li	a0,161
C:\MRS_DATA\workspace\CH583M_Watch\obj/../src/oled.c:705
        OLED_WR_Byte(0xA0,OLED_CMD);/* A0 ：列地址0映射到SEG0; A1 ：列地址127映射到SEG0 */
    1526:	3545                	jal	13c6 <OLED_WR_Byte>
C:\MRS_DATA\workspace\CH583M_Watch\obj/../src/oled.c:706
        OLED_WR_Byte(0xC0,OLED_CMD);/* C0 ：正常扫描,从COM0到COM63;  C8 : 反向扫描, 从 COM63至 COM0 */
    1528:	4581                	li	a1,0
    152a:	0c000513          	li	a0,192
C:\MRS_DATA\workspace\CH583M_Watch\obj/../src/oled.c:713
    }
}
    152e:	40b2                	lw	ra,12(sp)
    1530:	0141                	addi	sp,sp,16
C:\MRS_DATA\workspace\CH583M_Watch\obj/../src/oled.c:711
        OLED_WR_Byte(0xC8,OLED_CMD);/* C0 ：正常扫描,从COM0到COM63;  C8 : 反向扫描, 从 COM63至 COM0 */
    1532:	bd51                	j	13c6 <OLED_WR_Byte>
C:\MRS_DATA\workspace\CH583M_Watch\obj/../src/oled.c:703
    else if (para == 2)
    1534:	4789                	li	a5,2
    1536:	00f51663          	bne	a0,a5,1542 <OLED_SetDir+0x3e>
C:\MRS_DATA\workspace\CH583M_Watch\obj/../src/oled.c:705
        OLED_WR_Byte(0xA0,OLED_CMD);/* A0 ：列地址0映射到SEG0; A1 ：列地址127映射到SEG0 */
    153a:	4581                	li	a1,0
    153c:	0a000513          	li	a0,160
    1540:	b7dd                	j	1526 <OLED_SetDir+0x22>
C:\MRS_DATA\workspace\CH583M_Watch\obj/../src/oled.c:708
    else if (para == 3)
    1542:	478d                	li	a5,3
    1544:	00f51663          	bne	a0,a5,1550 <OLED_SetDir+0x4c>
C:\MRS_DATA\workspace\CH583M_Watch\obj/../src/oled.c:710
        OLED_WR_Byte(0xA1,OLED_CMD);/* A0 ：列地址0映射到SEG0; A1 ：列地址127映射到SEG0 */
    1548:	4581                	li	a1,0
    154a:	0a100513          	li	a0,161
    154e:	b7d9                	j	1514 <OLED_SetDir+0x10>
C:\MRS_DATA\workspace\CH583M_Watch\obj/../src/oled.c:713
}
    1550:	40b2                	lw	ra,12(sp)
    1552:	0141                	addi	sp,sp,16
    1554:	8082                	ret

00001556 <OLED_Clear>:
OLED_Clear():
C:\MRS_DATA\workspace\CH583M_Watch\obj/../src/oled.c:723
    OLED_WR_Byte(para,OLED_CMD); /* 设置对比度参数,缺省CF */
}

//清屏函数,清完屏,整个屏幕是黑色的!和没点亮一样!!!
void OLED_Clear(uint8_t para)
{
    1556:	4701                	li	a4,0
    1558:	20001617          	auipc	a2,0x20001
    155c:	9bc60613          	addi	a2,a2,-1604 # 20001f14 <OLED_GRAM>
C:\MRS_DATA\workspace\CH583M_Watch\obj/../src/oled.c:725
    uint16_t i,n;
    for(i=0; i<OLED_PAGE_V * SCREEN_H / 8; i++)
    1560:	45c1                	li	a1,16
    1562:	00c706b3          	add	a3,a4,a2
C:\MRS_DATA\workspace\CH583M_Watch\obj/../src/oled.c:723
{
    1566:	10000793          	li	a5,256
C:\MRS_DATA\workspace\CH583M_Watch\obj/../src/oled.c:729 (discriminator 3)
    {
        for(n=0; n<SCREEN_W * OLED_PAGE_H; n++)
        {
            OLED_GRAM[n][i]=0X00;
    156a:	17fd                	addi	a5,a5,-1
    156c:	07c2                	slli	a5,a5,0x10
    156e:	00068023          	sb	zero,0(a3)
    1572:	83c1                	srli	a5,a5,0x10
    1574:	06c1                	addi	a3,a3,16
C:\MRS_DATA\workspace\CH583M_Watch\obj/../src/oled.c:727 (discriminator 3)
        for(n=0; n<SCREEN_W * OLED_PAGE_H; n++)
    1576:	fbf5                	bnez	a5,156a <OLED_Clear+0x14>
    1578:	0705                	addi	a4,a4,1
C:\MRS_DATA\workspace\CH583M_Watch\obj/../src/oled.c:725 (discriminator 2)
    for(i=0; i<OLED_PAGE_V * SCREEN_H / 8; i++)
    157a:	feb714e3          	bne	a4,a1,1562 <OLED_Clear+0xc>
C:\MRS_DATA\workspace\CH583M_Watch\obj/../src/oled.c:732
        }
    }
    if(para)
    157e:	c111                	beqz	a0,1582 <OLED_Clear+0x2c>
C:\MRS_DATA\workspace\CH583M_Watch\obj/../src/oled.c:734
    {
        OLED_Refresh_Gram();//更新显示
    1580:	b555                	j	1424 <OLED_Refresh_Gram>
C:\MRS_DATA\workspace\CH583M_Watch\obj/../src/oled.c:736
    }
}
    1582:	8082                	ret

00001584 <OLED_DrawPoint>:
OLED_DrawPoint():
C:\MRS_DATA\workspace\CH583M_Watch\obj/../src/oled.c:745
//y:0~63
//t:1 填充 0,清空
void OLED_DrawPoint(uint16_t x,uint16_t y,uint8_t p)
{
    uint16_t cur_x,cur_y;
    cur_x = x + OLED_OFFSET_X;
    1584:	20002717          	auipc	a4,0x20002
    1588:	99070713          	addi	a4,a4,-1648 # 20002f14 <oled_ctr>
    158c:	00c75783          	lhu	a5,12(a4)
    1590:	953e                	add	a0,a0,a5
    1592:	0542                	slli	a0,a0,0x10
    1594:	8141                	srli	a0,a0,0x10
C:\MRS_DATA\workspace\CH583M_Watch\obj/../src/oled.c:747
    cur_y = y + OLED_OFFSET_Y;
    if((cur_x > SCREEN_W * OLED_PAGE_H - 1)||cur_y > (OLED_PAGE_V * SCREEN_H - 1))return;//超出范围了.
    1596:	0ff00793          	li	a5,255
    159a:	04a7e063          	bltu	a5,a0,15da <OLED_DrawPoint+0x56>
C:\MRS_DATA\workspace\CH583M_Watch\obj/../src/oled.c:746 (discriminator 2)
    cur_y = y + OLED_OFFSET_Y;
    159e:	00e75783          	lhu	a5,14(a4)
    15a2:	95be                	add	a1,a1,a5
    15a4:	05c2                	slli	a1,a1,0x10
    15a6:	81c1                	srli	a1,a1,0x10
C:\MRS_DATA\workspace\CH583M_Watch\obj/../src/oled.c:747 (discriminator 2)
    if((cur_x > SCREEN_W * OLED_PAGE_H - 1)||cur_y > (OLED_PAGE_V * SCREEN_H - 1))return;//超出范围了.
    15a8:	07f00793          	li	a5,127
    15ac:	02b7e763          	bltu	a5,a1,15da <OLED_DrawPoint+0x56>
C:\MRS_DATA\workspace\CH583M_Watch\obj/../src/oled.c:748
    if(p)
    15b0:	20001797          	auipc	a5,0x20001
    15b4:	96478793          	addi	a5,a5,-1692 # 20001f14 <OLED_GRAM>
    15b8:	0512                	slli	a0,a0,0x4
    15ba:	0035d713          	srli	a4,a1,0x3
    15be:	953e                	add	a0,a0,a5
    15c0:	899d                	andi	a1,a1,7
    15c2:	4785                	li	a5,1
    15c4:	00b795b3          	sll	a1,a5,a1
    15c8:	953a                	add	a0,a0,a4
    15ca:	05e2                	slli	a1,a1,0x18
    15cc:	00050703          	lb	a4,0(a0) # 400000 <_data_lma+0x3faa6c>
    15d0:	85e1                	srai	a1,a1,0x18
    15d2:	c609                	beqz	a2,15dc <OLED_DrawPoint+0x58>
C:\MRS_DATA\workspace\CH583M_Watch\obj/../src/oled.c:749
        OLED_GRAM[cur_x][cur_y/8] |= 1 << (cur_y % 8);
    15d4:	8dd9                	or	a1,a1,a4
C:\MRS_DATA\workspace\CH583M_Watch\obj/../src/oled.c:751
    else
        OLED_GRAM[cur_x][cur_y/8] &= ~ (1 << (cur_y % 8));
    15d6:	00b50023          	sb	a1,0(a0)
C:\MRS_DATA\workspace\CH583M_Watch\obj/../src/oled.c:752
}
    15da:	8082                	ret
C:\MRS_DATA\workspace\CH583M_Watch\obj/../src/oled.c:751
        OLED_GRAM[cur_x][cur_y/8] &= ~ (1 << (cur_y % 8));
    15dc:	fff5c593          	not	a1,a1
    15e0:	8df9                	and	a1,a1,a4
    15e2:	bfd5                	j	15d6 <OLED_DrawPoint+0x52>

000015e4 <OLED_Show_Picture>:
OLED_Show_Picture():
C:\MRS_DATA\workspace\CH583M_Watch\obj/../src/oled.c:2188
void OLED_Show_Picture(img_data_desc *img,dis_data_desc *dis)
{
    uint16_t x,y;
    uint16_t cur_x,cur_y,pos;
    //图像不为空，尺寸大于零，显示区域大于0，显示位置不超过屏宽高
    if ((img->font == NULL) || (img->w == 0) || (img->h == 0) ||\
    15e4:	415c                	lw	a5,4(a0)
    15e6:	cb8d                	beqz	a5,1618 <OLED_Show_Picture+0x34>
C:\MRS_DATA\workspace\CH583M_Watch\obj/../src/oled.c:2188 (discriminator 1)
    15e8:	00854703          	lbu	a4,8(a0)
    15ec:	c715                	beqz	a4,1618 <OLED_Show_Picture+0x34>
C:\MRS_DATA\workspace\CH583M_Watch\obj/../src/oled.c:2188 (discriminator 2)
    15ee:	00954783          	lbu	a5,9(a0)
    15f2:	c39d                	beqz	a5,1618 <OLED_Show_Picture+0x34>
C:\MRS_DATA\workspace\CH583M_Watch\obj/../src/oled.c:2189 (discriminator 3)
        (dis->w == 0) || (dis->h == 0) || (dis->x >= OLED_W) || (dis->y >= OLED_H))
    15f4:	0045d603          	lhu	a2,4(a1)
C:\MRS_DATA\workspace\CH583M_Watch\obj/../src/oled.c:2188 (discriminator 3)
    if ((img->font == NULL) || (img->w == 0) || (img->h == 0) ||\
    15f8:	c205                	beqz	a2,1618 <OLED_Show_Picture+0x34>
C:\MRS_DATA\workspace\CH583M_Watch\obj/../src/oled.c:2189
        (dis->w == 0) || (dis->h == 0) || (dis->x >= OLED_W) || (dis->y >= OLED_H))
    15fa:	0065d683          	lhu	a3,6(a1)
    15fe:	ce89                	beqz	a3,1618 <OLED_Show_Picture+0x34>
C:\MRS_DATA\workspace\CH583M_Watch\obj/../src/oled.c:2189 (discriminator 1)
    1600:	00059883          	lh	a7,0(a1)
    1604:	0ff00813          	li	a6,255
    1608:	01184863          	blt	a6,a7,1618 <OLED_Show_Picture+0x34>
C:\MRS_DATA\workspace\CH583M_Watch\obj/../src/oled.c:2189 (discriminator 2)
    160c:	00259883          	lh	a7,2(a1)
    1610:	07f00813          	li	a6,127
    1614:	01185863          	bge	a6,a7,1624 <OLED_Show_Picture+0x40>
C:\MRS_DATA\workspace\CH583M_Watch\obj/../src/oled.c:2191
    {
        printf("尺寸错误");
    1618:	00003517          	auipc	a0,0x3
    161c:	b6c50513          	addi	a0,a0,-1172 # 4184 <s_crclo+0x100>
C:\MRS_DATA\workspace\CH583M_Watch\obj/../src/oled.c:2197
        return ;
    }
    //显示偏移不过显示区域
    if((dis->off_x < (-1*img->w)) || (dis->off_x > dis->w) || (dis->off_y < (-1*img->h)) || (dis->off_y > dis->h))
    {
        printf("区域错误");
    1620:	1e20106f          	j	2802 <iprintf>
C:\MRS_DATA\workspace\CH583M_Watch\obj/../src/oled.c:2195
    if((dis->off_x < (-1*img->w)) || (dis->off_x > dis->w) || (dis->off_y < (-1*img->h)) || (dis->off_y > dis->h))
    1624:	00859803          	lh	a6,8(a1)
    1628:	40e00733          	neg	a4,a4
    162c:	00e84c63          	blt	a6,a4,1644 <OLED_Show_Picture+0x60>
C:\MRS_DATA\workspace\CH583M_Watch\obj/../src/oled.c:2195 (discriminator 1)
    1630:	01064a63          	blt	a2,a6,1644 <OLED_Show_Picture+0x60>
C:\MRS_DATA\workspace\CH583M_Watch\obj/../src/oled.c:2195 (discriminator 2)
    1634:	00a59703          	lh	a4,10(a1)
    1638:	40f007b3          	neg	a5,a5
    163c:	00f74463          	blt	a4,a5,1644 <OLED_Show_Picture+0x60>
C:\MRS_DATA\workspace\CH583M_Watch\obj/../src/oled.c:2195 (discriminator 3)
    1640:	00e6d763          	bge	a3,a4,164e <OLED_Show_Picture+0x6a>
C:\MRS_DATA\workspace\CH583M_Watch\obj/../src/oled.c:2197
        printf("区域错误");
    1644:	00003517          	auipc	a0,0x3
    1648:	b4c50513          	addi	a0,a0,-1204 # 4190 <s_crclo+0x10c>
    164c:	bfd1                	j	1620 <OLED_Show_Picture+0x3c>
C:\MRS_DATA\workspace\CH583M_Watch\obj/../src/oled.c:2184
{
    164e:	1101                	addi	sp,sp,-32
    1650:	cc22                	sw	s0,24(sp)
    1652:	ca26                	sw	s1,20(sp)
    1654:	ce06                	sw	ra,28(sp)
    1656:	c84a                	sw	s2,16(sp)
    1658:	c64e                	sw	s3,12(sp)
C:\MRS_DATA\workspace\CH583M_Watch\obj/../src/oled.c:2200
        return ;
    }
    if(dis->dis_opt == OPT_NORMAL)
    165a:	00c5c783          	lbu	a5,12(a1)
    165e:	842e                	mv	s0,a1
    1660:	84aa                	mv	s1,a0
    1662:	cfc5                	beqz	a5,171a <OLED_Show_Picture+0x136>
C:\MRS_DATA\workspace\CH583M_Watch\obj/../src/oled.c:2233
                    //不在图片区域范围内
                }
            }
        }
    }
    else if(dis->dis_opt == OPT_COVER)
    1664:	4705                	li	a4,1
    1666:	14e79c63          	bne	a5,a4,17be <OLED_Show_Picture+0x1da>
C:\MRS_DATA\workspace\CH583M_Watch\obj/../src/oled.c:2235
    {
        for(y = 0; y < dis->h; y++)
    166a:	4901                	li	s2,0
    166c:	a299                	j	17b2 <OLED_Show_Picture+0x1ce>
C:\MRS_DATA\workspace\CH583M_Watch\obj/../src/oled.c:2207
                if((x >= dis->off_x) && (x < (dis->off_x + dis->w)) && (y >= dis->off_y) && (y < (dis->off_y + dis->h)))
    166e:	00841783          	lh	a5,8(s0)
    1672:	06f9cb63          	blt	s3,a5,16e8 <OLED_Show_Picture+0x104>
C:\MRS_DATA\workspace\CH583M_Watch\obj/../src/oled.c:2207 (discriminator 1)
    1676:	973e                	add	a4,a4,a5
    1678:	06e9d863          	bge	s3,a4,16e8 <OLED_Show_Picture+0x104>
C:\MRS_DATA\workspace\CH583M_Watch\obj/../src/oled.c:2207 (discriminator 2)
    167c:	00a41703          	lh	a4,10(s0)
    1680:	06e94463          	blt	s2,a4,16e8 <OLED_Show_Picture+0x104>
C:\MRS_DATA\workspace\CH583M_Watch\obj/../src/oled.c:2207 (discriminator 3)
    1684:	00645683          	lhu	a3,6(s0)
    1688:	96ba                	add	a3,a3,a4
    168a:	04d95f63          	bge	s2,a3,16e8 <OLED_Show_Picture+0x104>
C:\MRS_DATA\workspace\CH583M_Watch\obj/../src/oled.c:2211
                    if(img->w % 8)
    168e:	0084c583          	lbu	a1,8(s1) # 20008 <_data_lma+0x1aa74>
C:\MRS_DATA\workspace\CH583M_Watch\obj/../src/oled.c:2209
                    cur_x = x - dis->off_x;
    1692:	40f987b3          	sub	a5,s3,a5
    1696:	07c2                	slli	a5,a5,0x10
C:\MRS_DATA\workspace\CH583M_Watch\obj/../src/oled.c:2210
                    cur_y = y - dis->off_y;
    1698:	40e90733          	sub	a4,s2,a4
C:\MRS_DATA\workspace\CH583M_Watch\obj/../src/oled.c:2209
                    cur_x = x - dis->off_x;
    169c:	83c1                	srli	a5,a5,0x10
C:\MRS_DATA\workspace\CH583M_Watch\obj/../src/oled.c:2210
                    cur_y = y - dis->off_y;
    169e:	0742                	slli	a4,a4,0x10
    16a0:	0035d613          	srli	a2,a1,0x3
C:\MRS_DATA\workspace\CH583M_Watch\obj/../src/oled.c:2211
                    if(img->w % 8)
    16a4:	899d                	andi	a1,a1,7
C:\MRS_DATA\workspace\CH583M_Watch\obj/../src/oled.c:2210
                    cur_y = y - dis->off_y;
    16a6:	8341                	srli	a4,a4,0x10
C:\MRS_DATA\workspace\CH583M_Watch\obj/../src/oled.c:2211
                    if(img->w % 8)
    16a8:	0037d693          	srli	a3,a5,0x3
    16ac:	c191                	beqz	a1,16b0 <OLED_Show_Picture+0xcc>
C:\MRS_DATA\workspace\CH583M_Watch\obj/../src/oled.c:2213
                        pos = (cur_y * (img->w / 8 + 1)) + (cur_x / 8);
    16ae:	0605                	addi	a2,a2,1
C:\MRS_DATA\workspace\CH583M_Watch\obj/../src/oled.c:2216
                        pos = (cur_y * (img->w / 8)) + (cur_x / 8);
    16b0:	02c70733          	mul	a4,a4,a2
C:\MRS_DATA\workspace\CH583M_Watch\obj/../src/oled.c:2219
                    if((img->font[pos]) & (0x01 << (7 - (cur_x % 8))))
    16b4:	fff7c793          	not	a5,a5
    16b8:	8b9d                	andi	a5,a5,7
C:\MRS_DATA\workspace\CH583M_Watch\obj/../src/oled.c:2216
                        pos = (cur_y * (img->w / 8)) + (cur_x / 8);
    16ba:	9736                	add	a4,a4,a3
C:\MRS_DATA\workspace\CH583M_Watch\obj/../src/oled.c:2219
                    if((img->font[pos]) & (0x01 << (7 - (cur_x % 8))))
    16bc:	40d4                	lw	a3,4(s1)
C:\MRS_DATA\workspace\CH583M_Watch\obj/../src/oled.c:2216
                        pos = (cur_y * (img->w / 8)) + (cur_x / 8);
    16be:	0742                	slli	a4,a4,0x10
    16c0:	8341                	srli	a4,a4,0x10
C:\MRS_DATA\workspace\CH583M_Watch\obj/../src/oled.c:2219
                    if((img->font[pos]) & (0x01 << (7 - (cur_x % 8))))
    16c2:	9736                	add	a4,a4,a3
    16c4:	00074703          	lbu	a4,0(a4)
    16c8:	40f757b3          	sra	a5,a4,a5
    16cc:	8b85                	andi	a5,a5,1
    16ce:	cf89                	beqz	a5,16e8 <OLED_Show_Picture+0x104>
C:\MRS_DATA\workspace\CH583M_Watch\obj/../src/oled.c:2221
                        OLED_DrawPoint(x + dis->x, y + dis->y, 1);
    16d0:	00245583          	lhu	a1,2(s0)
    16d4:	00045503          	lhu	a0,0(s0)
    16d8:	4605                	li	a2,1
    16da:	95ca                	add	a1,a1,s2
    16dc:	954e                	add	a0,a0,s3
    16de:	05c2                	slli	a1,a1,0x10
    16e0:	0542                	slli	a0,a0,0x10
    16e2:	81c1                	srli	a1,a1,0x10
    16e4:	8141                	srli	a0,a0,0x10
    16e6:	3d79                	jal	1584 <OLED_DrawPoint>
C:\MRS_DATA\workspace\CH583M_Watch\obj/../src/oled.c:2204 (discriminator 2)
            for(x = 0; x < dis->w; x++)
    16e8:	0985                	addi	s3,s3,1
    16ea:	09c2                	slli	s3,s3,0x10
    16ec:	0109d993          	srli	s3,s3,0x10
C:\MRS_DATA\workspace\CH583M_Watch\obj/../src/oled.c:2204 (discriminator 1)
    16f0:	00445703          	lhu	a4,4(s0)
    16f4:	f6e9ede3          	bltu	s3,a4,166e <OLED_Show_Picture+0x8a>
C:\MRS_DATA\workspace\CH583M_Watch\obj/../src/oled.c:2202 (discriminator 2)
        for(y = 0; y < dis->h; y++)
    16f8:	0905                	addi	s2,s2,1
    16fa:	0942                	slli	s2,s2,0x10
    16fc:	01095913          	srli	s2,s2,0x10
C:\MRS_DATA\workspace\CH583M_Watch\obj/../src/oled.c:2202 (discriminator 1)
    1700:	00645783          	lhu	a5,6(s0)
    1704:	00f96963          	bltu	s2,a5,1716 <OLED_Show_Picture+0x132>
C:\MRS_DATA\workspace\CH583M_Watch\obj/../src/oled.c:2374
                    //不在图片区域范围内
                }
            }
        }
    }
}
    1708:	40f2                	lw	ra,28(sp)
    170a:	4462                	lw	s0,24(sp)
    170c:	44d2                	lw	s1,20(sp)
    170e:	4942                	lw	s2,16(sp)
    1710:	49b2                	lw	s3,12(sp)
    1712:	6105                	addi	sp,sp,32
    1714:	8082                	ret
C:\MRS_DATA\workspace\CH583M_Watch\obj/../src/oled.c:2204
            for(x = 0; x < dis->w; x++)
    1716:	4981                	li	s3,0
    1718:	bfe1                	j	16f0 <OLED_Show_Picture+0x10c>
C:\MRS_DATA\workspace\CH583M_Watch\obj/../src/oled.c:2202
        for(y = 0; y < dis->h; y++)
    171a:	4901                	li	s2,0
    171c:	b7d5                	j	1700 <OLED_Show_Picture+0x11c>
C:\MRS_DATA\workspace\CH583M_Watch\obj/../src/oled.c:2240
                if((x >= dis->off_x) && (x < (dis->off_x + dis->w)) && (y >= dis->off_y) && (y < (dis->off_y + dis->h)))
    171e:	00841783          	lh	a5,8(s0)
    1722:	06f9cc63          	blt	s3,a5,179a <OLED_Show_Picture+0x1b6>
C:\MRS_DATA\workspace\CH583M_Watch\obj/../src/oled.c:2240 (discriminator 1)
    1726:	973e                	add	a4,a4,a5
    1728:	06e9d963          	bge	s3,a4,179a <OLED_Show_Picture+0x1b6>
C:\MRS_DATA\workspace\CH583M_Watch\obj/../src/oled.c:2240 (discriminator 2)
    172c:	00a41703          	lh	a4,10(s0)
    1730:	06e94563          	blt	s2,a4,179a <OLED_Show_Picture+0x1b6>
C:\MRS_DATA\workspace\CH583M_Watch\obj/../src/oled.c:2240 (discriminator 3)
    1734:	00645683          	lhu	a3,6(s0)
    1738:	96ba                	add	a3,a3,a4
    173a:	06d95063          	bge	s2,a3,179a <OLED_Show_Picture+0x1b6>
C:\MRS_DATA\workspace\CH583M_Watch\obj/../src/oled.c:2244
                    if(img->w % 8)
    173e:	0084c583          	lbu	a1,8(s1)
C:\MRS_DATA\workspace\CH583M_Watch\obj/../src/oled.c:2242
                    cur_x = x - dis->off_x;
    1742:	40f987b3          	sub	a5,s3,a5
    1746:	07c2                	slli	a5,a5,0x10
C:\MRS_DATA\workspace\CH583M_Watch\obj/../src/oled.c:2243
                    cur_y = y - dis->off_y;
    1748:	40e90733          	sub	a4,s2,a4
C:\MRS_DATA\workspace\CH583M_Watch\obj/../src/oled.c:2242
                    cur_x = x - dis->off_x;
    174c:	83c1                	srli	a5,a5,0x10
C:\MRS_DATA\workspace\CH583M_Watch\obj/../src/oled.c:2243
                    cur_y = y - dis->off_y;
    174e:	0742                	slli	a4,a4,0x10
    1750:	0035d613          	srli	a2,a1,0x3
C:\MRS_DATA\workspace\CH583M_Watch\obj/../src/oled.c:2244
                    if(img->w % 8)
    1754:	899d                	andi	a1,a1,7
C:\MRS_DATA\workspace\CH583M_Watch\obj/../src/oled.c:2243
                    cur_y = y - dis->off_y;
    1756:	8341                	srli	a4,a4,0x10
C:\MRS_DATA\workspace\CH583M_Watch\obj/../src/oled.c:2244
                    if(img->w % 8)
    1758:	0037d693          	srli	a3,a5,0x3
    175c:	c191                	beqz	a1,1760 <OLED_Show_Picture+0x17c>
C:\MRS_DATA\workspace\CH583M_Watch\obj/../src/oled.c:2246
                        pos = (cur_y * (img->w / 8 + 1)) + (cur_x / 8);
    175e:	0605                	addi	a2,a2,1
C:\MRS_DATA\workspace\CH583M_Watch\obj/../src/oled.c:2249
                        pos = (cur_y * (img->w / 8)) + (cur_x / 8);
    1760:	02c70733          	mul	a4,a4,a2
    1764:	00045503          	lhu	a0,0(s0)
    1768:	00245583          	lhu	a1,2(s0)
C:\MRS_DATA\workspace\CH583M_Watch\obj/../src/oled.c:2252
                    if((img->font[pos]) & (0x01 << (7 - (cur_x % 8))))
    176c:	fff7c793          	not	a5,a5
    1770:	8b9d                	andi	a5,a5,7
    1772:	954e                	add	a0,a0,s3
    1774:	95ca                	add	a1,a1,s2
    1776:	0542                	slli	a0,a0,0x10
    1778:	05c2                	slli	a1,a1,0x10
    177a:	8141                	srli	a0,a0,0x10
C:\MRS_DATA\workspace\CH583M_Watch\obj/../src/oled.c:2249
                        pos = (cur_y * (img->w / 8)) + (cur_x / 8);
    177c:	9736                	add	a4,a4,a3
C:\MRS_DATA\workspace\CH583M_Watch\obj/../src/oled.c:2252
                    if((img->font[pos]) & (0x01 << (7 - (cur_x % 8))))
    177e:	40d4                	lw	a3,4(s1)
C:\MRS_DATA\workspace\CH583M_Watch\obj/../src/oled.c:2249
                        pos = (cur_y * (img->w / 8)) + (cur_x / 8);
    1780:	0742                	slli	a4,a4,0x10
    1782:	8341                	srli	a4,a4,0x10
C:\MRS_DATA\workspace\CH583M_Watch\obj/../src/oled.c:2252
                    if((img->font[pos]) & (0x01 << (7 - (cur_x % 8))))
    1784:	9736                	add	a4,a4,a3
    1786:	00074703          	lbu	a4,0(a4)
    178a:	81c1                	srli	a1,a1,0x10
C:\MRS_DATA\workspace\CH583M_Watch\obj/../src/oled.c:2254
                        OLED_DrawPoint(x + dis->x, y + dis->y, 1);
    178c:	4605                	li	a2,1
C:\MRS_DATA\workspace\CH583M_Watch\obj/../src/oled.c:2252
                    if((img->font[pos]) & (0x01 << (7 - (cur_x % 8))))
    178e:	40f757b3          	sra	a5,a4,a5
    1792:	8b85                	andi	a5,a5,1
    1794:	e391                	bnez	a5,1798 <OLED_Show_Picture+0x1b4>
C:\MRS_DATA\workspace\CH583M_Watch\obj/../src/oled.c:2258
                        OLED_DrawPoint(x + dis->x, y + dis->y, 0);
    1796:	4601                	li	a2,0
    1798:	33f5                	jal	1584 <OLED_DrawPoint>
C:\MRS_DATA\workspace\CH583M_Watch\obj/../src/oled.c:2237 (discriminator 2)
            for(x = 0; x < dis->w; x++)
    179a:	0985                	addi	s3,s3,1
    179c:	09c2                	slli	s3,s3,0x10
    179e:	0109d993          	srli	s3,s3,0x10
C:\MRS_DATA\workspace\CH583M_Watch\obj/../src/oled.c:2237 (discriminator 1)
    17a2:	00445703          	lhu	a4,4(s0)
    17a6:	f6e9ece3          	bltu	s3,a4,171e <OLED_Show_Picture+0x13a>
C:\MRS_DATA\workspace\CH583M_Watch\obj/../src/oled.c:2235 (discriminator 2)
        for(y = 0; y < dis->h; y++)
    17aa:	0905                	addi	s2,s2,1
    17ac:	0942                	slli	s2,s2,0x10
    17ae:	01095913          	srli	s2,s2,0x10
C:\MRS_DATA\workspace\CH583M_Watch\obj/../src/oled.c:2235 (discriminator 1)
    17b2:	00645783          	lhu	a5,6(s0)
    17b6:	f4f979e3          	bgeu	s2,a5,1708 <OLED_Show_Picture+0x124>
C:\MRS_DATA\workspace\CH583M_Watch\obj/../src/oled.c:2237
            for(x = 0; x < dis->w; x++)
    17ba:	4981                	li	s3,0
    17bc:	b7dd                	j	17a2 <OLED_Show_Picture+0x1be>
C:\MRS_DATA\workspace\CH583M_Watch\obj/../src/oled.c:2268
    else if(dis->dis_opt == OPT_REV)
    17be:	4709                	li	a4,2
    17c0:	0ae79363          	bne	a5,a4,1866 <OLED_Show_Picture+0x282>
C:\MRS_DATA\workspace\CH583M_Watch\obj/../src/oled.c:2270
        for(y = 0; y < dis->h; y++)
    17c4:	4901                	li	s2,0
    17c6:	a851                	j	185a <OLED_Show_Picture+0x276>
C:\MRS_DATA\workspace\CH583M_Watch\obj/../src/oled.c:2275
                if((x >= dis->off_x) && (x < (dis->off_x + dis->w)) && (y >= dis->off_y) && (y < (dis->off_y + dis->h)))
    17c8:	00841783          	lh	a5,8(s0)
    17cc:	06f9cb63          	blt	s3,a5,1842 <OLED_Show_Picture+0x25e>
C:\MRS_DATA\workspace\CH583M_Watch\obj/../src/oled.c:2275 (discriminator 1)
    17d0:	973e                	add	a4,a4,a5
    17d2:	06e9d863          	bge	s3,a4,1842 <OLED_Show_Picture+0x25e>
C:\MRS_DATA\workspace\CH583M_Watch\obj/../src/oled.c:2275 (discriminator 2)
    17d6:	00a41703          	lh	a4,10(s0)
    17da:	06e94463          	blt	s2,a4,1842 <OLED_Show_Picture+0x25e>
C:\MRS_DATA\workspace\CH583M_Watch\obj/../src/oled.c:2275 (discriminator 3)
    17de:	00645683          	lhu	a3,6(s0)
    17e2:	96ba                	add	a3,a3,a4
    17e4:	04d95f63          	bge	s2,a3,1842 <OLED_Show_Picture+0x25e>
C:\MRS_DATA\workspace\CH583M_Watch\obj/../src/oled.c:2279
                    if(img->w % 8)
    17e8:	0084c583          	lbu	a1,8(s1)
C:\MRS_DATA\workspace\CH583M_Watch\obj/../src/oled.c:2277
                    cur_x = x - dis->off_x;
    17ec:	40f987b3          	sub	a5,s3,a5
    17f0:	07c2                	slli	a5,a5,0x10
C:\MRS_DATA\workspace\CH583M_Watch\obj/../src/oled.c:2278
                    cur_y = y - dis->off_y;
    17f2:	40e90733          	sub	a4,s2,a4
C:\MRS_DATA\workspace\CH583M_Watch\obj/../src/oled.c:2277
                    cur_x = x - dis->off_x;
    17f6:	83c1                	srli	a5,a5,0x10
C:\MRS_DATA\workspace\CH583M_Watch\obj/../src/oled.c:2278
                    cur_y = y - dis->off_y;
    17f8:	0742                	slli	a4,a4,0x10
    17fa:	0035d613          	srli	a2,a1,0x3
C:\MRS_DATA\workspace\CH583M_Watch\obj/../src/oled.c:2279
                    if(img->w % 8)
    17fe:	899d                	andi	a1,a1,7
C:\MRS_DATA\workspace\CH583M_Watch\obj/../src/oled.c:2278
                    cur_y = y - dis->off_y;
    1800:	8341                	srli	a4,a4,0x10
C:\MRS_DATA\workspace\CH583M_Watch\obj/../src/oled.c:2279
                    if(img->w % 8)
    1802:	0037d693          	srli	a3,a5,0x3
    1806:	c191                	beqz	a1,180a <OLED_Show_Picture+0x226>
C:\MRS_DATA\workspace\CH583M_Watch\obj/../src/oled.c:2281
                        pos = (cur_y * (img->w / 8 + 1)) + (cur_x / 8);
    1808:	0605                	addi	a2,a2,1
C:\MRS_DATA\workspace\CH583M_Watch\obj/../src/oled.c:2284
                        pos = (cur_y * (img->w / 8)) + (cur_x / 8);
    180a:	02c70733          	mul	a4,a4,a2
C:\MRS_DATA\workspace\CH583M_Watch\obj/../src/oled.c:2287
                    if((img->font[pos]) & (0x01 << (7 - (cur_x % 8))))
    180e:	fff7c793          	not	a5,a5
    1812:	8b9d                	andi	a5,a5,7
C:\MRS_DATA\workspace\CH583M_Watch\obj/../src/oled.c:2284
                        pos = (cur_y * (img->w / 8)) + (cur_x / 8);
    1814:	9736                	add	a4,a4,a3
C:\MRS_DATA\workspace\CH583M_Watch\obj/../src/oled.c:2287
                    if((img->font[pos]) & (0x01 << (7 - (cur_x % 8))))
    1816:	40d4                	lw	a3,4(s1)
C:\MRS_DATA\workspace\CH583M_Watch\obj/../src/oled.c:2284
                        pos = (cur_y * (img->w / 8)) + (cur_x / 8);
    1818:	0742                	slli	a4,a4,0x10
    181a:	8341                	srli	a4,a4,0x10
C:\MRS_DATA\workspace\CH583M_Watch\obj/../src/oled.c:2287
                    if((img->font[pos]) & (0x01 << (7 - (cur_x % 8))))
    181c:	9736                	add	a4,a4,a3
    181e:	00074703          	lbu	a4,0(a4)
    1822:	40f757b3          	sra	a5,a4,a5
    1826:	8b85                	andi	a5,a5,1
    1828:	ef89                	bnez	a5,1842 <OLED_Show_Picture+0x25e>
C:\MRS_DATA\workspace\CH583M_Watch\obj/../src/oled.c:2292
                        OLED_DrawPoint(x + dis->x, y + dis->y, 1);
    182a:	00245583          	lhu	a1,2(s0)
    182e:	00045503          	lhu	a0,0(s0)
    1832:	4605                	li	a2,1
    1834:	95ca                	add	a1,a1,s2
    1836:	954e                	add	a0,a0,s3
    1838:	05c2                	slli	a1,a1,0x10
    183a:	0542                	slli	a0,a0,0x10
    183c:	81c1                	srli	a1,a1,0x10
    183e:	8141                	srli	a0,a0,0x10
    1840:	3391                	jal	1584 <OLED_DrawPoint>
C:\MRS_DATA\workspace\CH583M_Watch\obj/../src/oled.c:2272 (discriminator 2)
            for(x = 0; x < dis->w; x++)
    1842:	0985                	addi	s3,s3,1
    1844:	09c2                	slli	s3,s3,0x10
    1846:	0109d993          	srli	s3,s3,0x10
C:\MRS_DATA\workspace\CH583M_Watch\obj/../src/oled.c:2272 (discriminator 1)
    184a:	00445703          	lhu	a4,4(s0)
    184e:	f6e9ede3          	bltu	s3,a4,17c8 <OLED_Show_Picture+0x1e4>
C:\MRS_DATA\workspace\CH583M_Watch\obj/../src/oled.c:2270 (discriminator 2)
        for(y = 0; y < dis->h; y++)
    1852:	0905                	addi	s2,s2,1
    1854:	0942                	slli	s2,s2,0x10
    1856:	01095913          	srli	s2,s2,0x10
C:\MRS_DATA\workspace\CH583M_Watch\obj/../src/oled.c:2270 (discriminator 1)
    185a:	00645783          	lhu	a5,6(s0)
    185e:	eaf975e3          	bgeu	s2,a5,1708 <OLED_Show_Picture+0x124>
C:\MRS_DATA\workspace\CH583M_Watch\obj/../src/oled.c:2272
            for(x = 0; x < dis->w; x++)
    1862:	4981                	li	s3,0
    1864:	b7dd                	j	184a <OLED_Show_Picture+0x266>
C:\MRS_DATA\workspace\CH583M_Watch\obj/../src/oled.c:2302
    else if(dis->dis_opt == OPT_REV_COV)
    1866:	470d                	li	a4,3
    1868:	0ae79463          	bne	a5,a4,1910 <OLED_Show_Picture+0x32c>
C:\MRS_DATA\workspace\CH583M_Watch\obj/../src/oled.c:2304
        for(y = 0; y < dis->h; y++)
    186c:	4901                	li	s2,0
    186e:	a859                	j	1904 <OLED_Show_Picture+0x320>
C:\MRS_DATA\workspace\CH583M_Watch\obj/../src/oled.c:2309
                if((x >= dis->off_x) && (x < (dis->off_x + dis->w)) && (y >= dis->off_y) && (y < (dis->off_y + dis->h)))
    1870:	00841783          	lh	a5,8(s0)
    1874:	06f9cc63          	blt	s3,a5,18ec <OLED_Show_Picture+0x308>
C:\MRS_DATA\workspace\CH583M_Watch\obj/../src/oled.c:2309 (discriminator 1)
    1878:	973e                	add	a4,a4,a5
    187a:	06e9d963          	bge	s3,a4,18ec <OLED_Show_Picture+0x308>
C:\MRS_DATA\workspace\CH583M_Watch\obj/../src/oled.c:2309 (discriminator 2)
    187e:	00a41703          	lh	a4,10(s0)
    1882:	06e94563          	blt	s2,a4,18ec <OLED_Show_Picture+0x308>
C:\MRS_DATA\workspace\CH583M_Watch\obj/../src/oled.c:2309 (discriminator 3)
    1886:	00645683          	lhu	a3,6(s0)
    188a:	96ba                	add	a3,a3,a4
    188c:	06d95063          	bge	s2,a3,18ec <OLED_Show_Picture+0x308>
C:\MRS_DATA\workspace\CH583M_Watch\obj/../src/oled.c:2313
                    if(img->w % 8)
    1890:	0084c583          	lbu	a1,8(s1)
C:\MRS_DATA\workspace\CH583M_Watch\obj/../src/oled.c:2311
                    cur_x = x - dis->off_x;
    1894:	40f987b3          	sub	a5,s3,a5
    1898:	07c2                	slli	a5,a5,0x10
C:\MRS_DATA\workspace\CH583M_Watch\obj/../src/oled.c:2312
                    cur_y = y - dis->off_y;
    189a:	40e90733          	sub	a4,s2,a4
C:\MRS_DATA\workspace\CH583M_Watch\obj/../src/oled.c:2311
                    cur_x = x - dis->off_x;
    189e:	83c1                	srli	a5,a5,0x10
C:\MRS_DATA\workspace\CH583M_Watch\obj/../src/oled.c:2312
                    cur_y = y - dis->off_y;
    18a0:	0742                	slli	a4,a4,0x10
    18a2:	0035d613          	srli	a2,a1,0x3
C:\MRS_DATA\workspace\CH583M_Watch\obj/../src/oled.c:2313
                    if(img->w % 8)
    18a6:	899d                	andi	a1,a1,7
C:\MRS_DATA\workspace\CH583M_Watch\obj/../src/oled.c:2312
                    cur_y = y - dis->off_y;
    18a8:	8341                	srli	a4,a4,0x10
C:\MRS_DATA\workspace\CH583M_Watch\obj/../src/oled.c:2313
                    if(img->w % 8)
    18aa:	0037d693          	srli	a3,a5,0x3
    18ae:	c191                	beqz	a1,18b2 <OLED_Show_Picture+0x2ce>
C:\MRS_DATA\workspace\CH583M_Watch\obj/../src/oled.c:2315
                        pos = (cur_y * (img->w / 8 + 1)) + (cur_x / 8);
    18b0:	0605                	addi	a2,a2,1
C:\MRS_DATA\workspace\CH583M_Watch\obj/../src/oled.c:2318
                        pos = (cur_y * (img->w / 8)) + (cur_x / 8);
    18b2:	02c70733          	mul	a4,a4,a2
    18b6:	00045503          	lhu	a0,0(s0)
    18ba:	00245583          	lhu	a1,2(s0)
C:\MRS_DATA\workspace\CH583M_Watch\obj/../src/oled.c:2321
                    if((img->font[pos]) & (0x01 << (7 - (cur_x % 8))))
    18be:	fff7c793          	not	a5,a5
    18c2:	8b9d                	andi	a5,a5,7
    18c4:	954e                	add	a0,a0,s3
    18c6:	95ca                	add	a1,a1,s2
    18c8:	0542                	slli	a0,a0,0x10
    18ca:	05c2                	slli	a1,a1,0x10
    18cc:	8141                	srli	a0,a0,0x10
C:\MRS_DATA\workspace\CH583M_Watch\obj/../src/oled.c:2318
                        pos = (cur_y * (img->w / 8)) + (cur_x / 8);
    18ce:	9736                	add	a4,a4,a3
C:\MRS_DATA\workspace\CH583M_Watch\obj/../src/oled.c:2321
                    if((img->font[pos]) & (0x01 << (7 - (cur_x % 8))))
    18d0:	40d4                	lw	a3,4(s1)
C:\MRS_DATA\workspace\CH583M_Watch\obj/../src/oled.c:2318
                        pos = (cur_y * (img->w / 8)) + (cur_x / 8);
    18d2:	0742                	slli	a4,a4,0x10
    18d4:	8341                	srli	a4,a4,0x10
C:\MRS_DATA\workspace\CH583M_Watch\obj/../src/oled.c:2321
                    if((img->font[pos]) & (0x01 << (7 - (cur_x % 8))))
    18d6:	9736                	add	a4,a4,a3
    18d8:	00074703          	lbu	a4,0(a4)
    18dc:	81c1                	srli	a1,a1,0x10
C:\MRS_DATA\workspace\CH583M_Watch\obj/../src/oled.c:2323
                        OLED_DrawPoint(x + dis->x, y + dis->y, 0);
    18de:	4601                	li	a2,0
C:\MRS_DATA\workspace\CH583M_Watch\obj/../src/oled.c:2321
                    if((img->font[pos]) & (0x01 << (7 - (cur_x % 8))))
    18e0:	40f757b3          	sra	a5,a4,a5
    18e4:	8b85                	andi	a5,a5,1
    18e6:	e391                	bnez	a5,18ea <OLED_Show_Picture+0x306>
C:\MRS_DATA\workspace\CH583M_Watch\obj/../src/oled.c:2327
                        OLED_DrawPoint(x + dis->x, y + dis->y, 1);
    18e8:	4605                	li	a2,1
    18ea:	3969                	jal	1584 <OLED_DrawPoint>
C:\MRS_DATA\workspace\CH583M_Watch\obj/../src/oled.c:2306 (discriminator 2)
            for(x = 0; x < dis->w; x++)
    18ec:	0985                	addi	s3,s3,1
    18ee:	09c2                	slli	s3,s3,0x10
    18f0:	0109d993          	srli	s3,s3,0x10
C:\MRS_DATA\workspace\CH583M_Watch\obj/../src/oled.c:2306 (discriminator 1)
    18f4:	00445703          	lhu	a4,4(s0)
    18f8:	f6e9ece3          	bltu	s3,a4,1870 <OLED_Show_Picture+0x28c>
C:\MRS_DATA\workspace\CH583M_Watch\obj/../src/oled.c:2304 (discriminator 2)
        for(y = 0; y < dis->h; y++)
    18fc:	0905                	addi	s2,s2,1
    18fe:	0942                	slli	s2,s2,0x10
    1900:	01095913          	srli	s2,s2,0x10
C:\MRS_DATA\workspace\CH583M_Watch\obj/../src/oled.c:2304 (discriminator 1)
    1904:	00645783          	lhu	a5,6(s0)
    1908:	e0f970e3          	bgeu	s2,a5,1708 <OLED_Show_Picture+0x124>
C:\MRS_DATA\workspace\CH583M_Watch\obj/../src/oled.c:2306
            for(x = 0; x < dis->w; x++)
    190c:	4981                	li	s3,0
    190e:	b7dd                	j	18f4 <OLED_Show_Picture+0x310>
C:\MRS_DATA\workspace\CH583M_Watch\obj/../src/oled.c:2337
    else if(dis->dis_opt == OPT_NOR_NC)
    1910:	4711                	li	a4,4
    1912:	dee79be3          	bne	a5,a4,1708 <OLED_Show_Picture+0x124>
C:\MRS_DATA\workspace\CH583M_Watch\obj/../src/oled.c:2339
        for(y = 0; y < dis->h; y++)
    1916:	4901                	li	s2,0
    1918:	a879                	j	19b6 <OLED_Show_Picture+0x3d2>
C:\MRS_DATA\workspace\CH583M_Watch\obj/../src/oled.c:2344
                if((x >= dis->off_x) && (x < (dis->off_x + dis->w)) && (y >= dis->off_y) && (y < (dis->off_y + dis->h)))
    191a:	00841783          	lh	a5,8(s0)
    191e:	08f9c063          	blt	s3,a5,199e <OLED_Show_Picture+0x3ba>
C:\MRS_DATA\workspace\CH583M_Watch\obj/../src/oled.c:2344 (discriminator 1)
    1922:	973e                	add	a4,a4,a5
    1924:	06e9dd63          	bge	s3,a4,199e <OLED_Show_Picture+0x3ba>
C:\MRS_DATA\workspace\CH583M_Watch\obj/../src/oled.c:2344 (discriminator 2)
    1928:	00a41703          	lh	a4,10(s0)
    192c:	06e94963          	blt	s2,a4,199e <OLED_Show_Picture+0x3ba>
C:\MRS_DATA\workspace\CH583M_Watch\obj/../src/oled.c:2344 (discriminator 3)
    1930:	00645683          	lhu	a3,6(s0)
    1934:	96ba                	add	a3,a3,a4
    1936:	06d95463          	bge	s2,a3,199e <OLED_Show_Picture+0x3ba>
C:\MRS_DATA\workspace\CH583M_Watch\obj/../src/oled.c:2348
                    if(img->w % 8)
    193a:	0084c583          	lbu	a1,8(s1)
C:\MRS_DATA\workspace\CH583M_Watch\obj/../src/oled.c:2346
                    cur_x = x - dis->off_x;
    193e:	40f987b3          	sub	a5,s3,a5
    1942:	07c2                	slli	a5,a5,0x10
C:\MRS_DATA\workspace\CH583M_Watch\obj/../src/oled.c:2347
                    cur_y = y - dis->off_y;
    1944:	40e90733          	sub	a4,s2,a4
C:\MRS_DATA\workspace\CH583M_Watch\obj/../src/oled.c:2346
                    cur_x = x - dis->off_x;
    1948:	83c1                	srli	a5,a5,0x10
C:\MRS_DATA\workspace\CH583M_Watch\obj/../src/oled.c:2347
                    cur_y = y - dis->off_y;
    194a:	0742                	slli	a4,a4,0x10
    194c:	0035d613          	srli	a2,a1,0x3
C:\MRS_DATA\workspace\CH583M_Watch\obj/../src/oled.c:2348
                    if(img->w % 8)
    1950:	899d                	andi	a1,a1,7
C:\MRS_DATA\workspace\CH583M_Watch\obj/../src/oled.c:2347
                    cur_y = y - dis->off_y;
    1952:	8341                	srli	a4,a4,0x10
C:\MRS_DATA\workspace\CH583M_Watch\obj/../src/oled.c:2348
                    if(img->w % 8)
    1954:	0037d693          	srli	a3,a5,0x3
    1958:	c191                	beqz	a1,195c <OLED_Show_Picture+0x378>
C:\MRS_DATA\workspace\CH583M_Watch\obj/../src/oled.c:2350
                        pos = (cur_y * (img->w / 8 + 1)) + (cur_x / 8);
    195a:	0605                	addi	a2,a2,1
C:\MRS_DATA\workspace\CH583M_Watch\obj/../src/oled.c:2353
                        pos = (cur_y * (img->w / 8)) + (cur_x / 8);
    195c:	02c70733          	mul	a4,a4,a2
C:\MRS_DATA\workspace\CH583M_Watch\obj/../src/oled.c:2356
                    if((img->font[pos]) & (0x01 << (7 - (cur_x % 8))))
    1960:	fff7c793          	not	a5,a5
    1964:	8b9d                	andi	a5,a5,7
C:\MRS_DATA\workspace\CH583M_Watch\obj/../src/oled.c:2353
                        pos = (cur_y * (img->w / 8)) + (cur_x / 8);
    1966:	9736                	add	a4,a4,a3
C:\MRS_DATA\workspace\CH583M_Watch\obj/../src/oled.c:2356
                    if((img->font[pos]) & (0x01 << (7 - (cur_x % 8))))
    1968:	40d4                	lw	a3,4(s1)
C:\MRS_DATA\workspace\CH583M_Watch\obj/../src/oled.c:2353
                        pos = (cur_y * (img->w / 8)) + (cur_x / 8);
    196a:	0742                	slli	a4,a4,0x10
    196c:	8341                	srli	a4,a4,0x10
C:\MRS_DATA\workspace\CH583M_Watch\obj/../src/oled.c:2356
                    if((img->font[pos]) & (0x01 << (7 - (cur_x % 8))))
    196e:	9736                	add	a4,a4,a3
    1970:	00074703          	lbu	a4,0(a4)
    1974:	40f757b3          	sra	a5,a4,a5
    1978:	8b85                	andi	a5,a5,1
    197a:	c395                	beqz	a5,199e <OLED_Show_Picture+0x3ba>
C:\MRS_DATA\workspace\CH583M_Watch\obj/../src/oled.c:2358
                        if((x + dis->x + y + dis->y) % 2 == 0)
    197c:	00041503          	lh	a0,0(s0)
    1980:	00241583          	lh	a1,2(s0)
    1984:	954e                	add	a0,a0,s3
    1986:	012507b3          	add	a5,a0,s2
    198a:	97ae                	add	a5,a5,a1
    198c:	8b85                	andi	a5,a5,1
    198e:	eb81                	bnez	a5,199e <OLED_Show_Picture+0x3ba>
C:\MRS_DATA\workspace\CH583M_Watch\obj/../src/oled.c:2360
                            OLED_DrawPoint(x + dis->x, y + dis->y, 1);
    1990:	95ca                	add	a1,a1,s2
    1992:	05c2                	slli	a1,a1,0x10
    1994:	0542                	slli	a0,a0,0x10
    1996:	4605                	li	a2,1
    1998:	81c1                	srli	a1,a1,0x10
    199a:	8141                	srli	a0,a0,0x10
    199c:	36e5                	jal	1584 <OLED_DrawPoint>
C:\MRS_DATA\workspace\CH583M_Watch\obj/../src/oled.c:2341 (discriminator 2)
            for(x = 0; x < dis->w; x++)
    199e:	0985                	addi	s3,s3,1
    19a0:	09c2                	slli	s3,s3,0x10
    19a2:	0109d993          	srli	s3,s3,0x10
C:\MRS_DATA\workspace\CH583M_Watch\obj/../src/oled.c:2341 (discriminator 1)
    19a6:	00445703          	lhu	a4,4(s0)
    19aa:	f6e9e8e3          	bltu	s3,a4,191a <OLED_Show_Picture+0x336>
C:\MRS_DATA\workspace\CH583M_Watch\obj/../src/oled.c:2339 (discriminator 2)
        for(y = 0; y < dis->h; y++)
    19ae:	0905                	addi	s2,s2,1
    19b0:	0942                	slli	s2,s2,0x10
    19b2:	01095913          	srli	s2,s2,0x10
C:\MRS_DATA\workspace\CH583M_Watch\obj/../src/oled.c:2339 (discriminator 1)
    19b6:	00645783          	lhu	a5,6(s0)
    19ba:	d4f977e3          	bgeu	s2,a5,1708 <OLED_Show_Picture+0x124>
C:\MRS_DATA\workspace\CH583M_Watch\obj/../src/oled.c:2341
            for(x = 0; x < dis->w; x++)
    19be:	4981                	li	s3,0
    19c0:	b7dd                	j	19a6 <OLED_Show_Picture+0x3c2>

000019c2 <Display_String>:
Display_String():
C:\MRS_DATA\workspace\CH583M_Watch\obj/../src/oled.c:2470
void Display_String(font_desc *font,dis_data_desc *dis, const char *str)
{
    img_data_desc desc;
    dis_data_desc disp;
    uint16_t index_len;
    if(str == NULL)
    19c2:	14060963          	beqz	a2,1b14 <Display_String+0x152>
C:\MRS_DATA\workspace\CH583M_Watch\obj/../src/oled.c:2466
{
    19c6:	715d                	addi	sp,sp,-80
    19c8:	c4a2                	sw	s0,72(sp)
    19ca:	da56                	sw	s5,52(sp)
    19cc:	842a                	mv	s0,a0
    19ce:	8ab2                	mv	s5,a2
C:\MRS_DATA\workspace\CH583M_Watch\obj/../src/oled.c:2472
    return ;
    disp = *dis;
    19d0:	0808                	addi	a0,sp,16
    19d2:	4639                	li	a2,14
C:\MRS_DATA\workspace\CH583M_Watch\obj/../src/oled.c:2466
{
    19d4:	c686                	sw	ra,76(sp)
    19d6:	c2a6                	sw	s1,68(sp)
    19d8:	c0ca                	sw	s2,64(sp)
    19da:	de4e                	sw	s3,60(sp)
    19dc:	dc52                	sw	s4,56(sp)
    19de:	d85a                	sw	s6,48(sp)
    19e0:	d65e                	sw	s7,44(sp)
C:\MRS_DATA\workspace\CH583M_Watch\obj/../src/oled.c:2472
    disp = *dis;
    19e2:	56b000ef          	jal	ra,274c <memcpy>
C:\MRS_DATA\workspace\CH583M_Watch\obj/../src/oled.c:2474
    index_len = 0;
    desc = font->chin;
    19e6:	4631                	li	a2,12
    19e8:	85a2                	mv	a1,s0
    19ea:	0048                	addi	a0,sp,4
    19ec:	561000ef          	jal	ra,274c <memcpy>
C:\MRS_DATA\workspace\CH583M_Watch\obj/../src/oled.c:2473
    index_len = 0;
    19f0:	4481                	li	s1,0
C:\MRS_DATA\workspace\CH583M_Watch\obj/../src/oled.c:2475
    while(*desc.index ++ != '\0')
    19f2:	4792                	lw	a5,4(sp)
    19f4:	00178713          	addi	a4,a5,1
    19f8:	c23a                	sw	a4,4(sp)
    19fa:	00078783          	lb	a5,0(a5)
    19fe:	efa5                	bnez	a5,1a76 <Display_String+0xb4>
C:\MRS_DATA\workspace\CH583M_Watch\obj/../src/oled.c:2479
    {
        index_len ++;
    }
    index_len /= 2;
    1a00:	8085                	srli	s1,s1,0x1
C:\MRS_DATA\workspace\CH583M_Watch\obj/../src/oled.c:2483
    //PRINT("index len:%d\r\n",index_len);
    while(*str != '\0')
    {
        if((*str >= ' ')&&(*str <='~'))
    1a02:	05e00913          	li	s2,94
C:\MRS_DATA\workspace\CH583M_Watch\obj/../src/oled.c:2509
            }
            OLED_Show_Picture(&desc, &disp);
            disp.x += desc.w;
            str ++;
        }
        else if((uint8_t)*str > 0x80)
    1a06:	08000993          	li	s3,128
C:\MRS_DATA\workspace\CH583M_Watch\obj/../src/oled.c:2485
            desc = font->engl;
    1a0a:	00c40a13          	addi	s4,s0,12
C:\MRS_DATA\workspace\CH583M_Watch\obj/../src/oled.c:2481
    while(*str != '\0')
    1a0e:	000a8b83          	lb	s7,0(s5)
    1a12:	080b8563          	beqz	s7,1a9c <Display_String+0xda>
C:\MRS_DATA\workspace\CH583M_Watch\obj/../src/oled.c:2483
        if((*str >= ' ')&&(*str <='~'))
    1a16:	0ffbf713          	andi	a4,s7,255
    1a1a:	fe070793          	addi	a5,a4,-32
    1a1e:	0ff7fb13          	andi	s6,a5,255
    1a22:	05696e63          	bltu	s2,s6,1a7e <Display_String+0xbc>
C:\MRS_DATA\workspace\CH583M_Watch\obj/../src/oled.c:2485
            desc = font->engl;
    1a26:	4631                	li	a2,12
    1a28:	85d2                	mv	a1,s4
    1a2a:	0048                	addi	a0,sp,4
    1a2c:	521000ef          	jal	ra,274c <memcpy>
C:\MRS_DATA\workspace\CH583M_Watch\obj/../src/oled.c:2490
            disp.h = desc.h;
    1a30:	00d14783          	lbu	a5,13(sp)
C:\MRS_DATA\workspace\CH583M_Watch\obj/../src/oled.c:2489
            disp.w = desc.w;
    1a34:	00c14603          	lbu	a2,12(sp)
    1a38:	4814                	lw	a3,16(s0)
C:\MRS_DATA\workspace\CH583M_Watch\obj/../src/oled.c:2490
            disp.h = desc.h;
    1a3a:	00f11b23          	sh	a5,22(sp)
    1a3e:	01444783          	lbu	a5,20(s0)
C:\MRS_DATA\workspace\CH583M_Watch\obj/../src/oled.c:2489
            disp.w = desc.w;
    1a42:	00c11a23          	sh	a2,20(sp)
C:\MRS_DATA\workspace\CH583M_Watch\obj/../src/oled.c:2497
            if(desc.w % 8)
    1a46:	8a1d                	andi	a2,a2,7
    1a48:	838d                	srli	a5,a5,0x3
    1a4a:	01544703          	lbu	a4,21(s0)
    1a4e:	c211                	beqz	a2,1a52 <Display_String+0x90>
C:\MRS_DATA\workspace\CH583M_Watch\obj/../src/oled.c:2499
                desc.font = font->engl.font + ((font->engl.w / 8 + 1) * font->engl.h) * ch;
    1a50:	0785                	addi	a5,a5,1
C:\MRS_DATA\workspace\CH583M_Watch\obj/../src/oled.c:2503
                desc.font = font->engl.font + (font->engl.w / 8 * font->engl.h) * ch;
    1a52:	02f707b3          	mul	a5,a4,a5
C:\MRS_DATA\workspace\CH583M_Watch\obj/../src/oled.c:2505
            OLED_Show_Picture(&desc, &disp);
    1a56:	080c                	addi	a1,sp,16
    1a58:	0048                	addi	a0,sp,4
C:\MRS_DATA\workspace\CH583M_Watch\obj/../src/oled.c:2503
                desc.font = font->engl.font + (font->engl.w / 8 * font->engl.h) * ch;
    1a5a:	036787b3          	mul	a5,a5,s6
    1a5e:	97b6                	add	a5,a5,a3
    1a60:	c43e                	sw	a5,8(sp)
C:\MRS_DATA\workspace\CH583M_Watch\obj/../src/oled.c:2505
            OLED_Show_Picture(&desc, &disp);
    1a62:	3649                	jal	15e4 <OLED_Show_Picture>
C:\MRS_DATA\workspace\CH583M_Watch\obj/../src/oled.c:2506
            disp.x += desc.w;
    1a64:	01015783          	lhu	a5,16(sp)
    1a68:	00c14703          	lbu	a4,12(sp)
    1a6c:	97ba                	add	a5,a5,a4
    1a6e:	00f11823          	sh	a5,16(sp)
C:\MRS_DATA\workspace\CH583M_Watch\obj/../src/oled.c:2555
            str ++;
            str ++;
        }
        else
        {
            str ++;
    1a72:	0a85                	addi	s5,s5,1
    1a74:	bf69                	j	1a0e <Display_String+0x4c>
C:\MRS_DATA\workspace\CH583M_Watch\obj/../src/oled.c:2477
        index_len ++;
    1a76:	0485                	addi	s1,s1,1
    1a78:	04c2                	slli	s1,s1,0x10
    1a7a:	80c1                	srli	s1,s1,0x10
    1a7c:	bf9d                	j	19f2 <Display_String+0x30>
C:\MRS_DATA\workspace\CH583M_Watch\obj/../src/oled.c:2509
        else if((uint8_t)*str > 0x80)
    1a7e:	fee9fae3          	bgeu	s3,a4,1a72 <Display_String+0xb0>
C:\MRS_DATA\workspace\CH583M_Watch\obj/../src/oled.c:2516
            desc = font->chin;
    1a82:	4631                	li	a2,12
    1a84:	85a2                	mv	a1,s0
    1a86:	0048                	addi	a0,sp,4
    1a88:	001a8b03          	lb	s6,1(s5)
    1a8c:	4c1000ef          	jal	ra,274c <memcpy>
C:\MRS_DATA\workspace\CH583M_Watch\obj/../src/oled.c:2520
            for(pos=0; pos < index_len; pos++)/*计算font_table对应字库的数组下标*/
    1a90:	4701                	li	a4,0
C:\MRS_DATA\workspace\CH583M_Watch\obj/../src/oled.c:2520 (discriminator 1)
    1a92:	01071793          	slli	a5,a4,0x10
    1a96:	83c1                	srli	a5,a5,0x10
    1a98:	0097ed63          	bltu	a5,s1,1ab2 <Display_String+0xf0>
C:\MRS_DATA\workspace\CH583M_Watch\obj/../src/oled.c:2558
        }
    }
}
    1a9c:	40b6                	lw	ra,76(sp)
    1a9e:	4426                	lw	s0,72(sp)
    1aa0:	4496                	lw	s1,68(sp)
    1aa2:	4906                	lw	s2,64(sp)
    1aa4:	59f2                	lw	s3,60(sp)
    1aa6:	5a62                	lw	s4,56(sp)
    1aa8:	5ad2                	lw	s5,52(sp)
    1aaa:	5b42                	lw	s6,48(sp)
    1aac:	5bb2                	lw	s7,44(sp)
    1aae:	6161                	addi	sp,sp,80
    1ab0:	8082                	ret
C:\MRS_DATA\workspace\CH583M_Watch\obj/../src/oled.c:2525
                if((font->chin.index[2 * pos] == buf[0]) && (font->chin.index[2 * pos + 1] == buf[1]))
    1ab2:	401c                	lw	a5,0(s0)
    1ab4:	00171693          	slli	a3,a4,0x1
    1ab8:	97b6                	add	a5,a5,a3
    1aba:	00078683          	lb	a3,0(a5)
    1abe:	01769663          	bne	a3,s7,1aca <Display_String+0x108>
C:\MRS_DATA\workspace\CH583M_Watch\obj/../src/oled.c:2525 (discriminator 1)
    1ac2:	00178783          	lb	a5,1(a5)
    1ac6:	01678463          	beq	a5,s6,1ace <Display_String+0x10c>
    1aca:	0705                	addi	a4,a4,1
    1acc:	b7d9                	j	1a92 <Display_String+0xd0>
C:\MRS_DATA\workspace\CH583M_Watch\obj/../src/oled.c:2538
            disp.h = desc.h;
    1ace:	00d14783          	lbu	a5,13(sp)
C:\MRS_DATA\workspace\CH583M_Watch\obj/../src/oled.c:2537
            disp.w = desc.w;
    1ad2:	00c14583          	lbu	a1,12(sp)
    1ad6:	4050                	lw	a2,4(s0)
C:\MRS_DATA\workspace\CH583M_Watch\obj/../src/oled.c:2538
            disp.h = desc.h;
    1ad8:	00f11b23          	sh	a5,22(sp)
    1adc:	00844783          	lbu	a5,8(s0)
C:\MRS_DATA\workspace\CH583M_Watch\obj/../src/oled.c:2537
            disp.w = desc.w;
    1ae0:	00b11a23          	sh	a1,20(sp)
C:\MRS_DATA\workspace\CH583M_Watch\obj/../src/oled.c:2539
            if(desc.w % 8)
    1ae4:	899d                	andi	a1,a1,7
    1ae6:	838d                	srli	a5,a5,0x3
    1ae8:	00944683          	lbu	a3,9(s0)
    1aec:	c191                	beqz	a1,1af0 <Display_String+0x12e>
C:\MRS_DATA\workspace\CH583M_Watch\obj/../src/oled.c:2541
                desc.font = font->chin.font + ((font->chin.w / 8 + 1) * font->chin.h) * pos;
    1aee:	0785                	addi	a5,a5,1
C:\MRS_DATA\workspace\CH583M_Watch\obj/../src/oled.c:2545
                desc.font = font->chin.font + (font->chin.w / 8 * font->chin.h) * pos;
    1af0:	02f687b3          	mul	a5,a3,a5
C:\MRS_DATA\workspace\CH583M_Watch\obj/../src/oled.c:2547
            OLED_Show_Picture(&desc, &disp);
    1af4:	080c                	addi	a1,sp,16
    1af6:	0048                	addi	a0,sp,4
C:\MRS_DATA\workspace\CH583M_Watch\obj/../src/oled.c:2551
            str ++;
    1af8:	0a89                	addi	s5,s5,2
C:\MRS_DATA\workspace\CH583M_Watch\obj/../src/oled.c:2545
                desc.font = font->chin.font + (font->chin.w / 8 * font->chin.h) * pos;
    1afa:	02e787b3          	mul	a5,a5,a4
    1afe:	97b2                	add	a5,a5,a2
    1b00:	c43e                	sw	a5,8(sp)
C:\MRS_DATA\workspace\CH583M_Watch\obj/../src/oled.c:2547
            OLED_Show_Picture(&desc, &disp);
    1b02:	34cd                	jal	15e4 <OLED_Show_Picture>
C:\MRS_DATA\workspace\CH583M_Watch\obj/../src/oled.c:2548
            disp.x += desc.w;
    1b04:	01015783          	lhu	a5,16(sp)
    1b08:	00c14703          	lbu	a4,12(sp)
    1b0c:	97ba                	add	a5,a5,a4
    1b0e:	00f11823          	sh	a5,16(sp)
C:\MRS_DATA\workspace\CH583M_Watch\obj/../src/oled.c:2551
            str ++;
    1b12:	bdf5                	j	1a0e <Display_String+0x4c>
    1b14:	8082                	ret

00001b16 <oled_menu_handle>:
oled_menu_handle():
C:\MRS_DATA\workspace\CH583M_Watch\obj/../src/oled.c:2598
};

void oled_menu_handle(menu_desc *menu, screen_desc *screen, menu_ctr_typ ctr_code)
{
    uint8_t menu_num;
    if((menu->menu_num < 1) || (menu->menu_name == NULL))
    1b16:	00454703          	lbu	a4,4(a0)
    1b1a:	c369                	beqz	a4,1bdc <oled_menu_handle+0xc6>
C:\MRS_DATA\workspace\CH583M_Watch\obj/../src/oled.c:2598 (discriminator 1)
    1b1c:	411c                	lw	a5,0(a0)
    1b1e:	cfdd                	beqz	a5,1bdc <oled_menu_handle+0xc6>
C:\MRS_DATA\workspace\CH583M_Watch\obj/../src/oled.c:2603
    {
        return;
    }
    //计算菜单行数
    if(screen->screen_h % menu->font_des->engl.h)
    1b20:	491c                	lw	a5,16(a0)
    1b22:	0015c683          	lbu	a3,1(a1)
    1b26:	0157c583          	lbu	a1,21(a5)
    1b2a:	02b6d7b3          	divu	a5,a3,a1
    1b2e:	02b6f6b3          	remu	a3,a3,a1
    1b32:	c681                	beqz	a3,1b3a <oled_menu_handle+0x24>
C:\MRS_DATA\workspace\CH583M_Watch\obj/../src/oled.c:2605
    {
        menu_num = screen->screen_h / menu->font_des->engl.h + 1;
    1b34:	0785                	addi	a5,a5,1
    1b36:	0ff7f793          	andi	a5,a5,255
C:\MRS_DATA\workspace\CH583M_Watch\obj/../src/oled.c:2611
    }
    else
    {
        menu_num = screen->screen_h / menu->font_des->engl.h;
    }
    switch(ctr_code)
    1b3a:	4585                	li	a1,1
    1b3c:	02b60463          	beq	a2,a1,1b64 <oled_menu_handle+0x4e>
    1b40:	4689                	li	a3,2
    1b42:	04d60a63          	beq	a2,a3,1b96 <oled_menu_handle+0x80>
C:\MRS_DATA\workspace\CH583M_Watch\obj/../src/oled.c:2651

            menu->menu_pos = menu_num - 1;
        }
        break;
    }
    if ((menu->menu_pct > 0) && (menu->menu_pct < menu->menu_pct_cnt))
    1b46:	00854783          	lbu	a5,8(a0)
    1b4a:	cbc9                	beqz	a5,1bdc <oled_menu_handle+0xc6>
C:\MRS_DATA\workspace\CH583M_Watch\obj/../src/oled.c:2651 (discriminator 1)
    1b4c:	00954703          	lbu	a4,9(a0)
    1b50:	08e7f663          	bgeu	a5,a4,1bdc <oled_menu_handle+0xc6>
C:\MRS_DATA\workspace\CH583M_Watch\obj/../src/oled.c:2653
    {
        menu->menu_pct ++;
    1b54:	0785                	addi	a5,a5,1
    1b56:	0ff7f793          	andi	a5,a5,255
C:\MRS_DATA\workspace\CH583M_Watch\obj/../src/oled.c:2654
        if(menu->menu_pct == menu->menu_pct_cnt)
    1b5a:	06f70363          	beq	a4,a5,1bc0 <oled_menu_handle+0xaa>
C:\MRS_DATA\workspace\CH583M_Watch\obj/../src/oled.c:2653
        menu->menu_pct ++;
    1b5e:	00f50423          	sb	a5,8(a0)
    1b62:	8082                	ret
C:\MRS_DATA\workspace\CH583M_Watch\obj/../src/oled.c:2614
        if(menu->menu_cur < menu->menu_num - 1)
    1b64:	00654683          	lbu	a3,6(a0)
    1b68:	177d                	addi	a4,a4,-1
    1b6a:	02e6d063          	bge	a3,a4,1b8a <oled_menu_handle+0x74>
C:\MRS_DATA\workspace\CH583M_Watch\obj/../src/oled.c:2619
            if(menu->menu_pos < (menu_num - 1))
    1b6e:	00754703          	lbu	a4,7(a0)
C:\MRS_DATA\workspace\CH583M_Watch\obj/../src/oled.c:2616
            menu->menu_cur ++;
    1b72:	0685                	addi	a3,a3,1
    1b74:	00d50323          	sb	a3,6(a0)
C:\MRS_DATA\workspace\CH583M_Watch\obj/../src/oled.c:2617
            menu->menu_dir = MENU_CTR_CODE_NEXT;
    1b78:	00c50523          	sb	a2,10(a0)
C:\MRS_DATA\workspace\CH583M_Watch\obj/../src/oled.c:2619
            if(menu->menu_pos < (menu_num - 1))
    1b7c:	17fd                	addi	a5,a5,-1
    1b7e:	fcf754e3          	bge	a4,a5,1b46 <oled_menu_handle+0x30>
C:\MRS_DATA\workspace\CH583M_Watch\obj/../src/oled.c:2621
                menu->menu_pos ++;
    1b82:	0705                	addi	a4,a4,1
    1b84:	00e503a3          	sb	a4,7(a0)
    1b88:	bf7d                	j	1b46 <oled_menu_handle+0x30>
C:\MRS_DATA\workspace\CH583M_Watch\obj/../src/oled.c:2627
            menu->menu_dir = MENU_CTR_CODE_PRE;
    1b8a:	4789                	li	a5,2
    1b8c:	00f50523          	sb	a5,10(a0)
C:\MRS_DATA\workspace\CH583M_Watch\obj/../src/oled.c:2626
            menu->menu_cur = 0;
    1b90:	00051323          	sh	zero,6(a0)
    1b94:	bf4d                	j	1b46 <oled_menu_handle+0x30>
C:\MRS_DATA\workspace\CH583M_Watch\obj/../src/oled.c:2633
        if(menu->menu_cur > 0)
    1b96:	00654683          	lbu	a3,6(a0)
    1b9a:	ce89                	beqz	a3,1bb4 <oled_menu_handle+0x9e>
C:\MRS_DATA\workspace\CH583M_Watch\obj/../src/oled.c:2638
            if(menu->menu_pos > 0)
    1b9c:	00754783          	lbu	a5,7(a0)
C:\MRS_DATA\workspace\CH583M_Watch\obj/../src/oled.c:2635
            menu->menu_cur --;
    1ba0:	16fd                	addi	a3,a3,-1
    1ba2:	00d50323          	sb	a3,6(a0)
C:\MRS_DATA\workspace\CH583M_Watch\obj/../src/oled.c:2636
            menu->menu_dir = MENU_CTR_CODE_PRE;
    1ba6:	00c50523          	sb	a2,10(a0)
C:\MRS_DATA\workspace\CH583M_Watch\obj/../src/oled.c:2638
            if(menu->menu_pos > 0)
    1baa:	dfd1                	beqz	a5,1b46 <oled_menu_handle+0x30>
C:\MRS_DATA\workspace\CH583M_Watch\obj/../src/oled.c:2647
            menu->menu_pos = menu_num - 1;
    1bac:	17fd                	addi	a5,a5,-1
    1bae:	00f503a3          	sb	a5,7(a0)
    1bb2:	bf51                	j	1b46 <oled_menu_handle+0x30>
C:\MRS_DATA\workspace\CH583M_Watch\obj/../src/oled.c:2644
            menu->menu_cur = menu->menu_num - 1;
    1bb4:	177d                	addi	a4,a4,-1
    1bb6:	00e50323          	sb	a4,6(a0)
C:\MRS_DATA\workspace\CH583M_Watch\obj/../src/oled.c:2645
            menu->menu_dir = MENU_CTR_CODE_NEXT;
    1bba:	00b50523          	sb	a1,10(a0)
    1bbe:	b7fd                	j	1bac <oled_menu_handle+0x96>
C:\MRS_DATA\workspace\CH583M_Watch\obj/../src/oled.c:2657
        {
            menu->menu_pct = 0;
            if (menu->menu_dir == MENU_CTR_CODE_NEXT)
    1bc0:	00a54783          	lbu	a5,10(a0)
C:\MRS_DATA\workspace\CH583M_Watch\obj/../src/oled.c:2656
            menu->menu_pct = 0;
    1bc4:	00050423          	sb	zero,8(a0)
C:\MRS_DATA\workspace\CH583M_Watch\obj/../src/oled.c:2657
            if (menu->menu_dir == MENU_CTR_CODE_NEXT)
    1bc8:	4705                	li	a4,1
    1bca:	00e79a63          	bne	a5,a4,1bde <oled_menu_handle+0xc8>
C:\MRS_DATA\workspace\CH583M_Watch\obj/../src/oled.c:2659
            {
                menu->meun_last ++;
    1bce:	00554783          	lbu	a5,5(a0)
    1bd2:	0785                	addi	a5,a5,1
C:\MRS_DATA\workspace\CH583M_Watch\obj/../src/oled.c:2663
            }
            else if(menu->menu_dir == MENU_CTR_CODE_PRE)
            {
                menu->meun_last --;
    1bd4:	00f502a3          	sb	a5,5(a0)
C:\MRS_DATA\workspace\CH583M_Watch\obj/../src/oled.c:2665
            }
            menu->menu_dir = MENU_CTR_CODE_NONE;
    1bd8:	00050523          	sb	zero,10(a0)
C:\MRS_DATA\workspace\CH583M_Watch\obj/../src/oled.c:2668
        }
    }
}
    1bdc:	8082                	ret
C:\MRS_DATA\workspace\CH583M_Watch\obj/../src/oled.c:2661
            else if(menu->menu_dir == MENU_CTR_CODE_PRE)
    1bde:	4709                	li	a4,2
    1be0:	fee79ce3          	bne	a5,a4,1bd8 <oled_menu_handle+0xc2>
C:\MRS_DATA\workspace\CH583M_Watch\obj/../src/oled.c:2663
                menu->meun_last --;
    1be4:	00554783          	lbu	a5,5(a0)
    1be8:	17fd                	addi	a5,a5,-1
    1bea:	b7ed                	j	1bd4 <oled_menu_handle+0xbe>

00001bec <Time_Display>:
Time_Display():
C:\MRS_DATA\workspace\CH583M_Watch\obj/../src/oled.c:2719
              screen->screen_w - 1,               menu->menu_cur * (screen->screen_h - 2 - MENU_SEB_H) / menu->menu_num + MENU_SEB_H * 2, 1);
    //OLED_Refresh_Gram();
}

void Time_Display(uint8_t hou, uint8_t min, uint8_t sec, uint16_t msec)
{
    1bec:	7159                	addi	sp,sp,-112
C:\MRS_DATA\workspace\CH583M_Watch\obj/../src/oled.c:2734
    {
        char buf[4];
        dis.dis_opt = OPT_NORMAL;
        dis.x = 0;
        dis.y = 0;
        dis.w = 128;
    1bee:	004007b7          	lui	a5,0x400
    1bf2:	08078793          	addi	a5,a5,128 # 400080 <_data_lma+0x3faaec>
C:\MRS_DATA\workspace\CH583M_Watch\obj/../src/oled.c:2719
{
    1bf6:	d2a6                	sw	s1,100(sp)
    1bf8:	cece                	sw	s3,92(sp)
    1bfa:	cad6                	sw	s5,84(sp)
    1bfc:	89b2                	mv	s3,a2
    1bfe:	84aa                	mv	s1,a0
C:\MRS_DATA\workspace\CH583M_Watch\obj/../src/oled.c:2738
        dis.h = 64;
        dis.off_x = 0;
        dis.off_y = 0;
        Display_String(&font_16_16_desc,&dis, "23.12.22,Fri");
    1c00:	00002617          	auipc	a2,0x2
    1c04:	59c60613          	addi	a2,a2,1436 # 419c <s_crclo+0x118>
    1c08:	00002517          	auipc	a0,0x2
    1c0c:	5b050513          	addi	a0,a0,1456 # 41b8 <font_16_16_desc>
C:\MRS_DATA\workspace\CH583M_Watch\obj/../src/oled.c:2719
{
    1c10:	8aae                	mv	s5,a1
C:\MRS_DATA\workspace\CH583M_Watch\obj/../src/oled.c:2738
        Display_String(&font_16_16_desc,&dis, "23.12.22,Fri");
    1c12:	100c                	addi	a1,sp,32
C:\MRS_DATA\workspace\CH583M_Watch\obj/../src/oled.c:2719
{
    1c14:	d686                	sw	ra,108(sp)
    1c16:	ccd2                	sw	s4,88(sp)
    1c18:	c8da                	sw	s6,80(sp)
    1c1a:	c6de                	sw	s7,76(sp)
    1c1c:	c2e6                	sw	s9,68(sp)
    1c1e:	de6e                	sw	s11,60(sp)
C:\MRS_DATA\workspace\CH583M_Watch\obj/../src/oled.c:2734
        dis.w = 128;
    1c20:	d23e                	sw	a5,36(sp)
C:\MRS_DATA\workspace\CH583M_Watch\obj/../src/oled.c:2719
{
    1c22:	8db6                	mv	s11,a3
    1c24:	d4a2                	sw	s0,104(sp)
    1c26:	d0ca                	sw	s2,96(sp)
    1c28:	c4e2                	sw	s8,72(sp)
    1c2a:	c0ea                	sw	s10,64(sp)
C:\MRS_DATA\workspace\CH583M_Watch\obj/../src/oled.c:2732
        dis.x = 0;
    1c2c:	d002                	sw	zero,32(sp)
C:\MRS_DATA\workspace\CH583M_Watch\obj/../src/oled.c:2736
        dis.off_x = 0;
    1c2e:	d402                	sw	zero,40(sp)
C:\MRS_DATA\workspace\CH583M_Watch\obj/../src/oled.c:2731
        dis.dis_opt = OPT_NORMAL;
    1c30:	02010623          	sb	zero,44(sp)
C:\MRS_DATA\workspace\CH583M_Watch\obj/../src/oled.c:2738
        Display_String(&font_16_16_desc,&dis, "23.12.22,Fri");
    1c34:	3379                	jal	19c2 <Display_String>
C:\MRS_DATA\workspace\CH583M_Watch\obj/../src/oled.c:2741

        extern uint16_t adc_buf[2][501];
        uint16_t vol = adc_buf[0][500] * 3300 / 2000;
    1c36:	6785                	lui	a5,0x1
    1c38:	c301d603          	lhu	a2,-976(gp) # 20001110 <adc_buf+0x3e8>
    1c3c:	ce478793          	addi	a5,a5,-796 # ce4 <memset+0x6>
    1c40:	02f60633          	mul	a2,a2,a5
    1c44:	7d000793          	li	a5,2000
C:\MRS_DATA\workspace\CH583M_Watch\obj/../src/oled.c:2742
        sprintf(buf, "%1d.%1dV", (vol/1000)%10, (vol%1000)/100);
    1c48:	4b29                	li	s6,10
    1c4a:	00002597          	auipc	a1,0x2
    1c4e:	56258593          	addi	a1,a1,1378 # 41ac <s_crclo+0x128>
    1c52:	0848                	addi	a0,sp,20
C:\MRS_DATA\workspace\CH583M_Watch\obj/../src/oled.c:2759
    dis.w = img.w;
    dis.h = img.h;
    dis.off_x = 0;
    dis.off_y = 0;

    uint8_t cnt = (999 - msec) * ANIM_STEP / (ANIM_TIME - 1);
    1c54:	3e700a13          	li	s4,999
    1c58:	41ba0a33          	sub	s4,s4,s11
    1c5c:	00003c97          	auipc	s9,0x3
    1c60:	f40c8c93          	addi	s9,s9,-192 # 4b9c <font_32_16_zkqk_num_tab>
    1c64:	00003b97          	auipc	s7,0x3
    1c68:	1b8b8b93          	addi	s7,s7,440 # 4e1c <font_44_22_zkqk_num_tab>
C:\MRS_DATA\workspace\CH583M_Watch\obj/../src/oled.c:2741
        uint16_t vol = adc_buf[0][500] * 3300 / 2000;
    1c6c:	02f64633          	div	a2,a2,a5
C:\MRS_DATA\workspace\CH583M_Watch\obj/../src/oled.c:2742
        sprintf(buf, "%1d.%1dV", (vol/1000)%10, (vol%1000)/100);
    1c70:	3e800793          	li	a5,1000
C:\MRS_DATA\workspace\CH583M_Watch\obj/../src/oled.c:2741
        uint16_t vol = adc_buf[0][500] * 3300 / 2000;
    1c74:	0642                	slli	a2,a2,0x10
    1c76:	8241                	srli	a2,a2,0x10
C:\MRS_DATA\workspace\CH583M_Watch\obj/../src/oled.c:2742
        sprintf(buf, "%1d.%1dV", (vol/1000)%10, (vol%1000)/100);
    1c78:	02f676b3          	remu	a3,a2,a5
    1c7c:	02f65633          	divu	a2,a2,a5
    1c80:	06400793          	li	a5,100
    1c84:	02f6d6b3          	divu	a3,a3,a5
    1c88:	03667633          	remu	a2,a2,s6
    1c8c:	49b000ef          	jal	ra,2926 <siprintf>
C:\MRS_DATA\workspace\CH583M_Watch\obj/../src/oled.c:2743
        dis.x = 128 - 32;
    1c90:	06000793          	li	a5,96
C:\MRS_DATA\workspace\CH583M_Watch\obj/../src/oled.c:2744
        Display_String(&font_16_16_desc,&dis, buf);
    1c94:	0850                	addi	a2,sp,20
    1c96:	100c                	addi	a1,sp,32
    1c98:	00002517          	auipc	a0,0x2
    1c9c:	52050513          	addi	a0,a0,1312 # 41b8 <font_16_16_desc>
C:\MRS_DATA\workspace\CH583M_Watch\obj/../src/oled.c:2743
        dis.x = 128 - 32;
    1ca0:	02f11023          	sh	a5,32(sp)
C:\MRS_DATA\workspace\CH583M_Watch\obj/../src/oled.c:2744
        Display_String(&font_16_16_desc,&dis, buf);
    1ca4:	3b39                	jal	19c2 <Display_String>
C:\MRS_DATA\workspace\CH583M_Watch\obj/../src/oled.c:2759
    uint8_t cnt = (999 - msec) * ANIM_STEP / (ANIM_TIME - 1);
    1ca6:	47bd                	li	a5,15
    1ca8:	02fa0a33          	mul	s4,s4,a5
    1cac:	12b00793          	li	a5,299
C:\MRS_DATA\workspace\CH583M_Watch\obj/../src/oled.c:2756
    dis.off_x = 0;
    1cb0:	d402                	sw	zero,40(sp)
C:\MRS_DATA\workspace\CH583M_Watch\obj/../src/oled.c:2751
    dis.dis_opt = OPT_NORMAL;
    1cb2:	02010623          	sb	zero,44(sp)
C:\MRS_DATA\workspace\CH583M_Watch\obj/../src/oled.c:2765
    uint8_t ne_sec,ne_min,ne_hou;
    ne_sec = (sec + 1) % 60;
    ne_min = min;
    ne_hou = hou;

    if(msec >= (1000 - ANIM_TIME))
    1cb6:	2bb00713          	li	a4,699
C:\MRS_DATA\workspace\CH583M_Watch\obj/../src/oled.c:2759
    uint8_t cnt = (999 - msec) * ANIM_STEP / (ANIM_TIME - 1);
    1cba:	02fa4a33          	div	s4,s4,a5
C:\MRS_DATA\workspace\CH583M_Watch\obj/../src/oled.c:2765
    if(msec >= (1000 - ANIM_TIME))
    1cbe:	0369f7b3          	remu	a5,s3,s6
    1cc2:	079a                	slli	a5,a5,0x6
    1cc4:	97e6                	add	a5,a5,s9
    1cc6:	13b77363          	bgeu	a4,s11,1dec <Time_Display+0x200>
C:\MRS_DATA\workspace\CH583M_Watch\obj/../src/oled.c:2761
    ne_sec = (sec + 1) % 60;
    1cca:	00198613          	addi	a2,s3,1
    1cce:	03c00593          	li	a1,60
    1cd2:	02b66633          	rem	a2,a2,a1
    1cd6:	0ff67713          	andi	a4,a2,255
    1cda:	c23a                	sw	a4,4(sp)
C:\MRS_DATA\workspace\CH583M_Watch\obj/../src/oled.c:2767
    {
        if(!(ne_sec % 10))
    1cdc:	03677733          	remu	a4,a4,s6
    1ce0:	e775                	bnez	a4,1dcc <Time_Display+0x1e0>
C:\MRS_DATA\workspace\CH583M_Watch\obj/../src/oled.c:2770
        {
            update_flag |= (0x01 << 1);//秒数十位更新
            if(ne_sec == 0)
    1ce2:	ea6d                	bnez	a2,1dd4 <Time_Display+0x1e8>
C:\MRS_DATA\workspace\CH583M_Watch\obj/../src/oled.c:2772
            {
                ne_min = (ne_min + 1) % 60;
    1ce4:	001a8693          	addi	a3,s5,1
    1ce8:	02b6e6b3          	rem	a3,a3,a1
    1cec:	0ff6f913          	andi	s2,a3,255
C:\MRS_DATA\workspace\CH583M_Watch\obj/../src/oled.c:2774
                update_flag |= (0x01 << 2);//分数个位更新
                if(!(ne_min % 10))
    1cf0:	03697633          	remu	a2,s2,s6
    1cf4:	e665                	bnez	a2,1ddc <Time_Display+0x1f0>
C:\MRS_DATA\workspace\CH583M_Watch\obj/../src/oled.c:2777
                {
                    update_flag |= (0x01 << 3);//分数十位更新
                    if(ne_min == 0)
    1cf6:	e6f5                	bnez	a3,1de2 <Time_Display+0x1f6>
C:\MRS_DATA\workspace\CH583M_Watch\obj/../src/oled.c:2779
                    {
                        ne_hou = (ne_hou + 1) % 24;
    1cf8:	00148413          	addi	s0,s1,1
    1cfc:	46e1                	li	a3,24
    1cfe:	02d46433          	rem	s0,s0,a3
C:\MRS_DATA\workspace\CH583M_Watch\obj/../src/oled.c:2772
                ne_min = (ne_min + 1) % 60;
    1d02:	4901                	li	s2,0
C:\MRS_DATA\workspace\CH583M_Watch\obj/../src/oled.c:2781
                        update_flag |= (0x01 << 4);//时数个位更新
                        if(!(ne_hou % 10))
    1d04:	03647b33          	remu	s6,s0,s6
    1d08:	0e0b1063          	bnez	s6,1de8 <Time_Display+0x1fc>
C:\MRS_DATA\workspace\CH583M_Watch\obj/../src/oled.c:2783
                        {
                            update_flag |= (0x01 << 5);//时数十位更新
    1d0c:	03e00b13          	li	s6,62
C:\MRS_DATA\workspace\CH583M_Watch\obj/../src/oled.c:2800
        dis.h = img.h;

        offset_p = img.h * ((img.w % 8) ? img.w / 8 + 1 : img.w / 8);
        img.font = (uint8_t *)(font_32_16_zkqk_num_desc.font + ((sec % 10) * offset_p));

        dis.x = 96 + img.w;
    1d10:	001a0637          	lui	a2,0x1a0
    1d14:	0ffa7c13          	andi	s8,s4,255
C:\MRS_DATA\workspace\CH583M_Watch\obj/../src/oled.c:2798
        img.font = (uint8_t *)(font_32_16_zkqk_num_desc.font + ((sec % 10) * offset_p));
    1d18:	cc3e                	sw	a5,24(sp)
C:\MRS_DATA\workspace\CH583M_Watch\obj/../src/oled.c:2800
        dis.x = 96 + img.w;
    1d1a:	07060793          	addi	a5,a2,112 # 1a0070 <_data_lma+0x19aadc>
    1d1e:	d03e                	sw	a5,32(sp)
C:\MRS_DATA\workspace\CH583M_Watch\obj/../src/oled.c:2802
        dis.y = 26;
        dis.off_y = -(ANIM_STEP - cnt) * img.h / ANIM_STEP;
    1d20:	ff1c0793          	addi	a5,s8,-15
    1d24:	4d3d                	li	s10,15
    1d26:	0796                	slli	a5,a5,0x5
    1d28:	03a7c7b3          	div	a5,a5,s10
C:\MRS_DATA\workspace\CH583M_Watch\obj/../src/oled.c:2791
        img.w = font_32_16_zkqk_num_desc.w;
    1d2c:	6809                	lui	a6,0x2
C:\MRS_DATA\workspace\CH583M_Watch\obj/../src/oled.c:2794
        dis.w = img.w;
    1d2e:	002006b7          	lui	a3,0x200
C:\MRS_DATA\workspace\CH583M_Watch\obj/../src/oled.c:2791
        img.w = font_32_16_zkqk_num_desc.w;
    1d32:	0841                	addi	a6,a6,16
C:\MRS_DATA\workspace\CH583M_Watch\obj/../src/oled.c:2794
        dis.w = img.w;
    1d34:	06c1                	addi	a3,a3,16
C:\MRS_DATA\workspace\CH583M_Watch\obj/../src/oled.c:2804

        OLED_Show_Picture(&img, &dis);
    1d36:	100c                	addi	a1,sp,32
    1d38:	0848                	addi	a0,sp,20
C:\MRS_DATA\workspace\CH583M_Watch\obj/../src/oled.c:2791
        img.w = font_32_16_zkqk_num_desc.w;
    1d3a:	01011e23          	sh	a6,28(sp)
    1d3e:	c642                	sw	a6,12(sp)
C:\MRS_DATA\workspace\CH583M_Watch\obj/../src/oled.c:2794
        dis.w = img.w;
    1d40:	d236                	sw	a3,36(sp)
    1d42:	c03a                	sw	a4,0(sp)
C:\MRS_DATA\workspace\CH583M_Watch\obj/../src/oled.c:2802
        dis.off_y = -(ANIM_STEP - cnt) * img.h / ANIM_STEP;
    1d44:	02f11523          	sh	a5,42(sp)
    1d48:	c43e                	sw	a5,8(sp)
C:\MRS_DATA\workspace\CH583M_Watch\obj/../src/oled.c:2804
        OLED_Show_Picture(&img, &dis);
    1d4a:	89bff0ef          	jal	ra,15e4 <OLED_Show_Picture>
C:\MRS_DATA\workspace\CH583M_Watch\obj/../src/oled.c:2806

        img.font = (uint8_t *)(font_32_16_zkqk_num_desc.font + ((ne_sec % 10) * offset_p));
    1d4e:	4702                	lw	a4,0(sp)
C:\MRS_DATA\workspace\CH583M_Watch\obj/../src/oled.c:2809
        dis.off_y = 0;

        dis.y = 26 + cnt * img.h / ANIM_STEP;
    1d50:	01d14583          	lbu	a1,29(sp)
C:\MRS_DATA\workspace\CH583M_Watch\obj/../src/oled.c:2812
        dis.w = img.w;
        dis.h = (ANIM_STEP - cnt) * img.h;
        OLED_Show_Picture(&img, &dis);
    1d54:	0848                	addi	a0,sp,20
C:\MRS_DATA\workspace\CH583M_Watch\obj/../src/oled.c:2806
        img.font = (uint8_t *)(font_32_16_zkqk_num_desc.font + ((ne_sec % 10) * offset_p));
    1d56:	071a                	slli	a4,a4,0x6
    1d58:	9766                	add	a4,a4,s9
    1d5a:	cc3a                	sw	a4,24(sp)
C:\MRS_DATA\workspace\CH583M_Watch\obj/../src/oled.c:2809
        dis.y = 26 + cnt * img.h / ANIM_STEP;
    1d5c:	03858733          	mul	a4,a1,s8
C:\MRS_DATA\workspace\CH583M_Watch\obj/../src/oled.c:2807
        dis.off_y = 0;
    1d60:	02011523          	sh	zero,42(sp)
C:\MRS_DATA\workspace\CH583M_Watch\obj/../src/oled.c:2809
        dis.y = 26 + cnt * img.h / ANIM_STEP;
    1d64:	03a74733          	div	a4,a4,s10
    1d68:	0769                	addi	a4,a4,26
    1d6a:	02e11123          	sh	a4,34(sp)
C:\MRS_DATA\workspace\CH583M_Watch\obj/../src/oled.c:2810
        dis.w = img.w;
    1d6e:	01c14703          	lbu	a4,28(sp)
    1d72:	02e11223          	sh	a4,36(sp)
C:\MRS_DATA\workspace\CH583M_Watch\obj/../src/oled.c:2811
        dis.h = (ANIM_STEP - cnt) * img.h;
    1d76:	418d0733          	sub	a4,s10,s8
    1d7a:	01071793          	slli	a5,a4,0x10
    1d7e:	83c1                	srli	a5,a5,0x10
    1d80:	02b785b3          	mul	a1,a5,a1
    1d84:	c03e                	sw	a5,0(sp)
    1d86:	02b11323          	sh	a1,38(sp)
C:\MRS_DATA\workspace\CH583M_Watch\obj/../src/oled.c:2812
        OLED_Show_Picture(&img, &dis);
    1d8a:	100c                	addi	a1,sp,32
    1d8c:	859ff0ef          	jal	ra,15e4 <OLED_Show_Picture>
C:\MRS_DATA\workspace\CH583M_Watch\obj/../src/oled.c:2832
        dis.x = 96 + font_32_16_zkqk_num_desc.w;
        dis.y = 26;
        OLED_Show_Picture(&img, &dis);
    }

    if(update_flag & (0x01 << 1))
    1d90:	002006b7          	lui	a3,0x200
    1d94:	002b7713          	andi	a4,s6,2
    1d98:	47a2                	lw	a5,8(sp)
    1d9a:	06c1                	addi	a3,a3,16
    1d9c:	001a0637          	lui	a2,0x1a0
    1da0:	4832                	lw	a6,12(sp)
    1da2:	eb3d                	bnez	a4,1e18 <Time_Display+0x22c>
C:\MRS_DATA\workspace\CH583M_Watch\obj/../src/oled.c:2860
    }
    else
    {
        //秒数十位常显
        img.font = font_32_16_zkqk_num_desc.font;
        img.w = font_32_16_zkqk_num_desc.w;
    1da4:	6789                	lui	a5,0x2
    1da6:	07c1                	addi	a5,a5,16
    1da8:	00f11e23          	sh	a5,28(sp)
C:\MRS_DATA\workspace\CH583M_Watch\obj/../src/oled.c:2866
        img.h = font_32_16_zkqk_num_desc.h;

        dis.w = img.w;
        dis.h = img.h;

        img.font = (uint8_t *)(font_32_16_zkqk_num_desc.font + ((sec / 10) * offset_p));
    1dac:	47a9                	li	a5,10
    1dae:	02f9d9b3          	divu	s3,s3,a5
C:\MRS_DATA\workspace\CH583M_Watch\obj/../src/oled.c:2868

        dis.x = 96;
    1db2:	001a07b7          	lui	a5,0x1a0
    1db6:	06078793          	addi	a5,a5,96 # 1a0060 <_data_lma+0x19aacc>
    1dba:	d03e                	sw	a5,32(sp)
C:\MRS_DATA\workspace\CH583M_Watch\obj/../src/oled.c:2863
        dis.w = img.w;
    1dbc:	002007b7          	lui	a5,0x200
    1dc0:	07c1                	addi	a5,a5,16
    1dc2:	d23e                	sw	a5,36(sp)
C:\MRS_DATA\workspace\CH583M_Watch\obj/../src/oled.c:2866
        img.font = (uint8_t *)(font_32_16_zkqk_num_desc.font + ((sec / 10) * offset_p));
    1dc4:	099a                	slli	s3,s3,0x6
    1dc6:	99e6                	add	s3,s3,s9
    1dc8:	cc4e                	sw	s3,24(sp)
C:\MRS_DATA\workspace\CH583M_Watch\obj/../src/oled.c:2869
        dis.y = 26;
    1dca:	a85d                	j	1e80 <Time_Display+0x294>
C:\MRS_DATA\workspace\CH583M_Watch\obj/../src/oled.c:2763
    ne_hou = hou;
    1dcc:	8426                	mv	s0,s1
C:\MRS_DATA\workspace\CH583M_Watch\obj/../src/oled.c:2762
    ne_min = min;
    1dce:	8956                	mv	s2,s5
C:\MRS_DATA\workspace\CH583M_Watch\obj/../src/oled.c:2726
    uint8_t update_flag = 0;
    1dd0:	4b01                	li	s6,0
    1dd2:	bf3d                	j	1d10 <Time_Display+0x124>
C:\MRS_DATA\workspace\CH583M_Watch\obj/../src/oled.c:2763
    ne_hou = hou;
    1dd4:	8426                	mv	s0,s1
C:\MRS_DATA\workspace\CH583M_Watch\obj/../src/oled.c:2762
    ne_min = min;
    1dd6:	8956                	mv	s2,s5
C:\MRS_DATA\workspace\CH583M_Watch\obj/../src/oled.c:2769
            update_flag |= (0x01 << 1);//秒数十位更新
    1dd8:	4b09                	li	s6,2
    1dda:	bf1d                	j	1d10 <Time_Display+0x124>
C:\MRS_DATA\workspace\CH583M_Watch\obj/../src/oled.c:2763
    ne_hou = hou;
    1ddc:	8426                	mv	s0,s1
C:\MRS_DATA\workspace\CH583M_Watch\obj/../src/oled.c:2773
                update_flag |= (0x01 << 2);//分数个位更新
    1dde:	4b19                	li	s6,6
    1de0:	bf05                	j	1d10 <Time_Display+0x124>
C:\MRS_DATA\workspace\CH583M_Watch\obj/../src/oled.c:2763
    ne_hou = hou;
    1de2:	8426                	mv	s0,s1
C:\MRS_DATA\workspace\CH583M_Watch\obj/../src/oled.c:2776
                    update_flag |= (0x01 << 3);//分数十位更新
    1de4:	4b39                	li	s6,14
    1de6:	b72d                	j	1d10 <Time_Display+0x124>
C:\MRS_DATA\workspace\CH583M_Watch\obj/../src/oled.c:2780
                        update_flag |= (0x01 << 4);//时数个位更新
    1de8:	4b79                	li	s6,30
    1dea:	b71d                	j	1d10 <Time_Display+0x124>
C:\MRS_DATA\workspace\CH583M_Watch\obj/../src/oled.c:2826
        img.font = (uint8_t *)(font_32_16_zkqk_num_desc.font + ((sec % 10) * offset_p));
    1dec:	cc3e                	sw	a5,24(sp)
C:\MRS_DATA\workspace\CH583M_Watch\obj/../src/oled.c:2827
        dis.x = 96 + font_32_16_zkqk_num_desc.w;
    1dee:	001a07b7          	lui	a5,0x1a0
    1df2:	07078793          	addi	a5,a5,112 # 1a0070 <_data_lma+0x19aadc>
    1df6:	d03e                	sw	a5,32(sp)
C:\MRS_DATA\workspace\CH583M_Watch\obj/../src/oled.c:2818
        img.w = font_32_16_zkqk_num_desc.w;
    1df8:	6709                	lui	a4,0x2
C:\MRS_DATA\workspace\CH583M_Watch\obj/../src/oled.c:2821
        dis.w = img.w;
    1dfa:	002007b7          	lui	a5,0x200
C:\MRS_DATA\workspace\CH583M_Watch\obj/../src/oled.c:2818
        img.w = font_32_16_zkqk_num_desc.w;
    1dfe:	0741                	addi	a4,a4,16
C:\MRS_DATA\workspace\CH583M_Watch\obj/../src/oled.c:2821
        dis.w = img.w;
    1e00:	07c1                	addi	a5,a5,16
C:\MRS_DATA\workspace\CH583M_Watch\obj/../src/oled.c:2829
        OLED_Show_Picture(&img, &dis);
    1e02:	100c                	addi	a1,sp,32
    1e04:	0848                	addi	a0,sp,20
C:\MRS_DATA\workspace\CH583M_Watch\obj/../src/oled.c:2818
        img.w = font_32_16_zkqk_num_desc.w;
    1e06:	00e11e23          	sh	a4,28(sp)
C:\MRS_DATA\workspace\CH583M_Watch\obj/../src/oled.c:2821
        dis.w = img.w;
    1e0a:	d23e                	sw	a5,36(sp)
C:\MRS_DATA\workspace\CH583M_Watch\obj/../src/oled.c:2763
    ne_hou = hou;
    1e0c:	8426                	mv	s0,s1
C:\MRS_DATA\workspace\CH583M_Watch\obj/../src/oled.c:2829
        OLED_Show_Picture(&img, &dis);
    1e0e:	fd6ff0ef          	jal	ra,15e4 <OLED_Show_Picture>
C:\MRS_DATA\workspace\CH583M_Watch\obj/../src/oled.c:2762
    ne_min = min;
    1e12:	8956                	mv	s2,s5
C:\MRS_DATA\workspace\CH583M_Watch\obj/../src/oled.c:2726
    uint8_t update_flag = 0;
    1e14:	4b01                	li	s6,0
    1e16:	b779                	j	1da4 <Time_Display+0x1b8>
C:\MRS_DATA\workspace\CH583M_Watch\obj/../src/oled.c:2841
        dis.off_y = -(ANIM_STEP - cnt) * img.h / ANIM_STEP;
    1e18:	02f11523          	sh	a5,42(sp)
C:\MRS_DATA\workspace\CH583M_Watch\obj/../src/oled.c:2843
        img.font = (uint8_t *)(font_32_16_zkqk_num_desc.font + (((sec / 10) % 6) * offset_p));
    1e1c:	47a9                	li	a5,10
    1e1e:	02f9d9b3          	divu	s3,s3,a5
    1e22:	4719                	li	a4,6
C:\MRS_DATA\workspace\CH583M_Watch\obj/../src/oled.c:2844
        dis.x = 96;
    1e24:	06060613          	addi	a2,a2,96 # 1a0060 <_data_lma+0x19aacc>
C:\MRS_DATA\workspace\CH583M_Watch\obj/../src/oled.c:2846
        OLED_Show_Picture(&img, &dis);
    1e28:	100c                	addi	a1,sp,32
    1e2a:	0848                	addi	a0,sp,20
C:\MRS_DATA\workspace\CH583M_Watch\obj/../src/oled.c:2836
        img.w = font_32_16_zkqk_num_desc.w;
    1e2c:	01011e23          	sh	a6,28(sp)
C:\MRS_DATA\workspace\CH583M_Watch\obj/../src/oled.c:2844
        dis.x = 96;
    1e30:	d032                	sw	a2,32(sp)
C:\MRS_DATA\workspace\CH583M_Watch\obj/../src/oled.c:2839
        dis.w = img.w;
    1e32:	d236                	sw	a3,36(sp)
C:\MRS_DATA\workspace\CH583M_Watch\obj/../src/oled.c:2843
        img.font = (uint8_t *)(font_32_16_zkqk_num_desc.font + (((sec / 10) % 6) * offset_p));
    1e34:	02e9f9b3          	remu	s3,s3,a4
    1e38:	099a                	slli	s3,s3,0x6
    1e3a:	99e6                	add	s3,s3,s9
    1e3c:	cc4e                	sw	s3,24(sp)
C:\MRS_DATA\workspace\CH583M_Watch\obj/../src/oled.c:2846
        OLED_Show_Picture(&img, &dis);
    1e3e:	fa6ff0ef          	jal	ra,15e4 <OLED_Show_Picture>
C:\MRS_DATA\workspace\CH583M_Watch\obj/../src/oled.c:2848
        img.font = (uint8_t *)(font_32_16_zkqk_num_desc.font + (((ne_sec / 10) % 6) * offset_p));
    1e42:	4712                	lw	a4,4(sp)
    1e44:	47a9                	li	a5,10
C:\MRS_DATA\workspace\CH583M_Watch\obj/../src/oled.c:2849
        dis.off_y = 0;
    1e46:	02011523          	sh	zero,42(sp)
C:\MRS_DATA\workspace\CH583M_Watch\obj/../src/oled.c:2848
        img.font = (uint8_t *)(font_32_16_zkqk_num_desc.font + (((ne_sec / 10) % 6) * offset_p));
    1e4a:	02f757b3          	divu	a5,a4,a5
C:\MRS_DATA\workspace\CH583M_Watch\obj/../src/oled.c:2852
        dis.w = img.w;
    1e4e:	01c14703          	lbu	a4,28(sp)
    1e52:	02e11223          	sh	a4,36(sp)
C:\MRS_DATA\workspace\CH583M_Watch\obj/../src/oled.c:2853
        dis.h = (ANIM_STEP - cnt) * img.h;
    1e56:	4702                	lw	a4,0(sp)
C:\MRS_DATA\workspace\CH583M_Watch\obj/../src/oled.c:2848
        img.font = (uint8_t *)(font_32_16_zkqk_num_desc.font + (((ne_sec / 10) % 6) * offset_p));
    1e58:	079a                	slli	a5,a5,0x6
    1e5a:	9cbe                	add	s9,s9,a5
C:\MRS_DATA\workspace\CH583M_Watch\obj/../src/oled.c:2850
        dis.x = 96;
    1e5c:	06000793          	li	a5,96
    1e60:	02f11023          	sh	a5,32(sp)
C:\MRS_DATA\workspace\CH583M_Watch\obj/../src/oled.c:2851
        dis.y = 26 + cnt * img.h / ANIM_STEP;
    1e64:	01d14783          	lbu	a5,29(sp)
C:\MRS_DATA\workspace\CH583M_Watch\obj/../src/oled.c:2848
        img.font = (uint8_t *)(font_32_16_zkqk_num_desc.font + (((ne_sec / 10) % 6) * offset_p));
    1e68:	cc66                	sw	s9,24(sp)
C:\MRS_DATA\workspace\CH583M_Watch\obj/../src/oled.c:2851
        dis.y = 26 + cnt * img.h / ANIM_STEP;
    1e6a:	03878c33          	mul	s8,a5,s8
    1e6e:	03ac4d33          	div	s10,s8,s10
C:\MRS_DATA\workspace\CH583M_Watch\obj/../src/oled.c:2853
        dis.h = (ANIM_STEP - cnt) * img.h;
    1e72:	02f707b3          	mul	a5,a4,a5
C:\MRS_DATA\workspace\CH583M_Watch\obj/../src/oled.c:2851
        dis.y = 26 + cnt * img.h / ANIM_STEP;
    1e76:	0d69                	addi	s10,s10,26
    1e78:	03a11123          	sh	s10,34(sp)
C:\MRS_DATA\workspace\CH583M_Watch\obj/../src/oled.c:2853
        dis.h = (ANIM_STEP - cnt) * img.h;
    1e7c:	02f11323          	sh	a5,38(sp)
C:\MRS_DATA\workspace\CH583M_Watch\obj/../src/oled.c:2870
        OLED_Show_Picture(&img, &dis);
    1e80:	100c                	addi	a1,sp,32
    1e82:	0848                	addi	a0,sp,20
    1e84:	f60ff0ef          	jal	ra,15e4 <OLED_Show_Picture>
C:\MRS_DATA\workspace\CH583M_Watch\obj/../src/oled.c:2875
    }

    //切为分数字体
    img.font = (uint8_t *)font_44_22_zkqk_num_desc.font;
    img.w = font_44_22_zkqk_num_desc.w;
    1e88:	678d                	lui	a5,0x3
    1e8a:	c1678793          	addi	a5,a5,-1002 # 2c16 <__sflush_r+0xde>
    1e8e:	00f11e23          	sh	a5,28(sp)
C:\MRS_DATA\workspace\CH583M_Watch\obj/../src/oled.c:2878
    img.h = font_44_22_zkqk_num_desc.h;
    offset_p = img.h * ((img.w % 8) ? img.w / 8 + 1 : img.w / 8);
    dis.w = font_44_22_zkqk_num_desc.w;
    1e92:	002c07b7          	lui	a5,0x2c0
    1e96:	07d9                	addi	a5,a5,22
    1e98:	49a9                	li	s3,10
    1e9a:	d23e                	sw	a5,36(sp)
C:\MRS_DATA\workspace\CH583M_Watch\obj/../src/oled.c:2881
    dis.h = font_44_22_zkqk_num_desc.h;

    if(update_flag & (0x01 << 2))
    1e9c:	033af7b3          	remu	a5,s5,s3
    1ea0:	08400d13          	li	s10,132
    1ea4:	004b7713          	andi	a4,s6,4
    1ea8:	03a787b3          	mul	a5,a5,s10
    1eac:	97de                	add	a5,a5,s7
    1eae:	28070763          	beqz	a4,213c <Time_Display+0x550>
C:\MRS_DATA\workspace\CH583M_Watch\obj/../src/oled.c:2884
    {
        //分数个位滑显
        dis.off_y = -(ANIM_STEP - cnt) * img.h / ANIM_STEP;
    1eb2:	0ffa7c93          	andi	s9,s4,255
    1eb6:	02c00693          	li	a3,44
    1eba:	ff1c8713          	addi	a4,s9,-15
    1ebe:	02d70733          	mul	a4,a4,a3
    1ec2:	4c3d                	li	s8,15
C:\MRS_DATA\workspace\CH583M_Watch\obj/../src/oled.c:2886

        img.font = (uint8_t *)(font_44_22_zkqk_num_desc.font + ((min % 10) * offset_p));
    1ec4:	cc3e                	sw	a5,24(sp)
C:\MRS_DATA\workspace\CH583M_Watch\obj/../src/oled.c:2887
        dis.x = img.w * 3 + 8;
    1ec6:	001007b7          	lui	a5,0x100
    1eca:	04a78793          	addi	a5,a5,74 # 10004a <_data_lma+0xfaab6>
C:\MRS_DATA\workspace\CH583M_Watch\obj/../src/oled.c:2889
        dis.y = 16;
        OLED_Show_Picture(&img, &dis);
    1ece:	100c                	addi	a1,sp,32
    1ed0:	0848                	addi	a0,sp,20
C:\MRS_DATA\workspace\CH583M_Watch\obj/../src/oled.c:2887
        dis.x = img.w * 3 + 8;
    1ed2:	d03e                	sw	a5,32(sp)
C:\MRS_DATA\workspace\CH583M_Watch\obj/../src/oled.c:2884
        dis.off_y = -(ANIM_STEP - cnt) * img.h / ANIM_STEP;
    1ed4:	03874733          	div	a4,a4,s8
    1ed8:	02e11523          	sh	a4,42(sp)
C:\MRS_DATA\workspace\CH583M_Watch\obj/../src/oled.c:2889
        OLED_Show_Picture(&img, &dis);
    1edc:	f08ff0ef          	jal	ra,15e4 <OLED_Show_Picture>
C:\MRS_DATA\workspace\CH583M_Watch\obj/../src/oled.c:2893

        img.font = (uint8_t *)(font_44_22_zkqk_num_desc.font + ((ne_min % 10) * offset_p));
        dis.off_y = 0;
        dis.x = img.w * 3 + 8;
    1ee0:	01c14783          	lbu	a5,28(sp)
    1ee4:	470d                	li	a4,3
C:\MRS_DATA\workspace\CH583M_Watch\obj/../src/oled.c:2891
        img.font = (uint8_t *)(font_44_22_zkqk_num_desc.font + ((ne_min % 10) * offset_p));
    1ee6:	033979b3          	remu	s3,s2,s3
C:\MRS_DATA\workspace\CH583M_Watch\obj/../src/oled.c:2892
        dis.off_y = 0;
    1eea:	02011523          	sh	zero,42(sp)
C:\MRS_DATA\workspace\CH583M_Watch\obj/../src/oled.c:2893
        dis.x = img.w * 3 + 8;
    1eee:	02e787b3          	mul	a5,a5,a4
C:\MRS_DATA\workspace\CH583M_Watch\obj/../src/oled.c:2894
        dis.y = 16 + cnt * img.h / ANIM_STEP;
    1ef2:	01d14703          	lbu	a4,29(sp)
C:\MRS_DATA\workspace\CH583M_Watch\obj/../src/oled.c:2893
        dis.x = img.w * 3 + 8;
    1ef6:	07a1                	addi	a5,a5,8
    1ef8:	02f11023          	sh	a5,32(sp)
C:\MRS_DATA\workspace\CH583M_Watch\obj/../src/oled.c:2894
        dis.y = 16 + cnt * img.h / ANIM_STEP;
    1efc:	039707b3          	mul	a5,a4,s9
    1f00:	0387c7b3          	div	a5,a5,s8
C:\MRS_DATA\workspace\CH583M_Watch\obj/../src/oled.c:2895
        dis.h = (ANIM_STEP - cnt) * img.h;
    1f04:	419c0c33          	sub	s8,s8,s9
C:\MRS_DATA\workspace\CH583M_Watch\obj/../src/oled.c:2891
        img.font = (uint8_t *)(font_44_22_zkqk_num_desc.font + ((ne_min % 10) * offset_p));
    1f08:	03a989b3          	mul	s3,s3,s10
C:\MRS_DATA\workspace\CH583M_Watch\obj/../src/oled.c:2894
        dis.y = 16 + cnt * img.h / ANIM_STEP;
    1f0c:	07c1                	addi	a5,a5,16
    1f0e:	02f11123          	sh	a5,34(sp)
C:\MRS_DATA\workspace\CH583M_Watch\obj/../src/oled.c:2895
        dis.h = (ANIM_STEP - cnt) * img.h;
    1f12:	02ec0c33          	mul	s8,s8,a4
C:\MRS_DATA\workspace\CH583M_Watch\obj/../src/oled.c:2891
        img.font = (uint8_t *)(font_44_22_zkqk_num_desc.font + ((ne_min % 10) * offset_p));
    1f16:	99de                	add	s3,s3,s7
    1f18:	cc4e                	sw	s3,24(sp)
C:\MRS_DATA\workspace\CH583M_Watch\obj/../src/oled.c:2895
        dis.h = (ANIM_STEP - cnt) * img.h;
    1f1a:	03811323          	sh	s8,38(sp)
C:\MRS_DATA\workspace\CH583M_Watch\obj/../src/oled.c:2904
    {
        //分数个位常显
        img.font = (uint8_t *)(font_44_22_zkqk_num_desc.font + ((min % 10) * offset_p));
        dis.x = img.w * 3 + 8;
        dis.y = 16;
        OLED_Show_Picture(&img, &dis);
    1f1e:	100c                	addi	a1,sp,32
    1f20:	0848                	addi	a0,sp,20
    1f22:	ec2ff0ef          	jal	ra,15e4 <OLED_Show_Picture>
C:\MRS_DATA\workspace\CH583M_Watch\obj/../src/oled.c:2906
    }
    dis.h = font_44_22_zkqk_num_desc.h;
    1f26:	46a9                	li	a3,10
    1f28:	02dadab3          	divu	s5,s5,a3
    1f2c:	4d19                	li	s10,6
    1f2e:	08400c93          	li	s9,132
    1f32:	02c00793          	li	a5,44
    1f36:	02f11323          	sh	a5,38(sp)
C:\MRS_DATA\workspace\CH583M_Watch\obj/../src/oled.c:2907
    if(update_flag & (0x01 << 3))
    1f3a:	01c14783          	lbu	a5,28(sp)
    1f3e:	008b7713          	andi	a4,s6,8
    1f42:	0791                	addi	a5,a5,4
    1f44:	0786                	slli	a5,a5,0x1
    1f46:	03aafab3          	remu	s5,s5,s10
    1f4a:	039a8ab3          	mul	s5,s5,s9
    1f4e:	9ade                	add	s5,s5,s7
    1f50:	1e070d63          	beqz	a4,214a <Time_Display+0x55e>
C:\MRS_DATA\workspace\CH583M_Watch\obj/../src/oled.c:2910
    {
        //分数十位滑显
        dis.off_y = -(ANIM_STEP - cnt) * img.h / ANIM_STEP;
    1f54:	01d14603          	lbu	a2,29(sp)
    1f58:	0ffa7c13          	andi	s8,s4,255
    1f5c:	ff1c0713          	addi	a4,s8,-15
    1f60:	02c70733          	mul	a4,a4,a2
    1f64:	49bd                	li	s3,15
C:\MRS_DATA\workspace\CH583M_Watch\obj/../src/oled.c:2913

        img.font = (uint8_t *)(font_44_22_zkqk_num_desc.font + (((min / 10) % 6) * offset_p));
        dis.x = img.w * 2 + 8;
    1f66:	02f11023          	sh	a5,32(sp)
C:\MRS_DATA\workspace\CH583M_Watch\obj/../src/oled.c:2915
        dis.y = 16;
        OLED_Show_Picture(&img, &dis);
    1f6a:	100c                	addi	a1,sp,32
C:\MRS_DATA\workspace\CH583M_Watch\obj/../src/oled.c:2914
        dis.y = 16;
    1f6c:	47c1                	li	a5,16
C:\MRS_DATA\workspace\CH583M_Watch\obj/../src/oled.c:2915
        OLED_Show_Picture(&img, &dis);
    1f6e:	0848                	addi	a0,sp,20
C:\MRS_DATA\workspace\CH583M_Watch\obj/../src/oled.c:2914
        dis.y = 16;
    1f70:	02f11123          	sh	a5,34(sp)
C:\MRS_DATA\workspace\CH583M_Watch\obj/../src/oled.c:2912
        img.font = (uint8_t *)(font_44_22_zkqk_num_desc.font + (((min / 10) % 6) * offset_p));
    1f74:	cc56                	sw	s5,24(sp)
C:\MRS_DATA\workspace\CH583M_Watch\obj/../src/oled.c:2910
        dis.off_y = -(ANIM_STEP - cnt) * img.h / ANIM_STEP;
    1f76:	03374733          	div	a4,a4,s3
    1f7a:	02e11523          	sh	a4,42(sp)
C:\MRS_DATA\workspace\CH583M_Watch\obj/../src/oled.c:2915
        OLED_Show_Picture(&img, &dis);
    1f7e:	e66ff0ef          	jal	ra,15e4 <OLED_Show_Picture>
C:\MRS_DATA\workspace\CH583M_Watch\obj/../src/oled.c:2917

        img.font = (uint8_t *)(font_44_22_zkqk_num_desc.font + (((ne_min / 10) % 6) * offset_p));
    1f82:	46a9                	li	a3,10
    1f84:	02d95933          	divu	s2,s2,a3
C:\MRS_DATA\workspace\CH583M_Watch\obj/../src/oled.c:2919
        dis.off_y = 0;
        dis.x = img.w * 2 + 8;
    1f88:	01c14783          	lbu	a5,28(sp)
C:\MRS_DATA\workspace\CH583M_Watch\obj/../src/oled.c:2920
        dis.y = 16 + cnt * img.h / ANIM_STEP;
    1f8c:	01d14703          	lbu	a4,29(sp)
C:\MRS_DATA\workspace\CH583M_Watch\obj/../src/oled.c:2918
        dis.off_y = 0;
    1f90:	02011523          	sh	zero,42(sp)
C:\MRS_DATA\workspace\CH583M_Watch\obj/../src/oled.c:2919
        dis.x = img.w * 2 + 8;
    1f94:	0791                	addi	a5,a5,4
    1f96:	0786                	slli	a5,a5,0x1
    1f98:	02f11023          	sh	a5,32(sp)
C:\MRS_DATA\workspace\CH583M_Watch\obj/../src/oled.c:2917
        img.font = (uint8_t *)(font_44_22_zkqk_num_desc.font + (((ne_min / 10) % 6) * offset_p));
    1f9c:	03a97933          	remu	s2,s2,s10
C:\MRS_DATA\workspace\CH583M_Watch\obj/../src/oled.c:2920
        dis.y = 16 + cnt * img.h / ANIM_STEP;
    1fa0:	038707b3          	mul	a5,a4,s8
    1fa4:	0337c7b3          	div	a5,a5,s3
C:\MRS_DATA\workspace\CH583M_Watch\obj/../src/oled.c:2921
        dis.h = (ANIM_STEP - cnt) * img.h;
    1fa8:	418989b3          	sub	s3,s3,s8
C:\MRS_DATA\workspace\CH583M_Watch\obj/../src/oled.c:2917
        img.font = (uint8_t *)(font_44_22_zkqk_num_desc.font + (((ne_min / 10) % 6) * offset_p));
    1fac:	03990933          	mul	s2,s2,s9
C:\MRS_DATA\workspace\CH583M_Watch\obj/../src/oled.c:2920
        dis.y = 16 + cnt * img.h / ANIM_STEP;
    1fb0:	07c1                	addi	a5,a5,16
    1fb2:	02f11123          	sh	a5,34(sp)
C:\MRS_DATA\workspace\CH583M_Watch\obj/../src/oled.c:2921
        dis.h = (ANIM_STEP - cnt) * img.h;
    1fb6:	02e989b3          	mul	s3,s3,a4
C:\MRS_DATA\workspace\CH583M_Watch\obj/../src/oled.c:2917
        img.font = (uint8_t *)(font_44_22_zkqk_num_desc.font + (((ne_min / 10) % 6) * offset_p));
    1fba:	995e                	add	s2,s2,s7
    1fbc:	cc4a                	sw	s2,24(sp)
C:\MRS_DATA\workspace\CH583M_Watch\obj/../src/oled.c:2921
        dis.h = (ANIM_STEP - cnt) * img.h;
    1fbe:	03311323          	sh	s3,38(sp)
C:\MRS_DATA\workspace\CH583M_Watch\obj/../src/oled.c:2930
    {
        //分数十位常显
        img.font = (uint8_t *)(font_44_22_zkqk_num_desc.font + (((min / 10) % 6) * offset_p));
        dis.x = img.w * 2 + 8;
        dis.y = 16;
        OLED_Show_Picture(&img, &dis);
    1fc2:	100c                	addi	a1,sp,32
    1fc4:	0848                	addi	a0,sp,20
    1fc6:	e1eff0ef          	jal	ra,15e4 <OLED_Show_Picture>
C:\MRS_DATA\workspace\CH583M_Watch\obj/../src/oled.c:2932
    }
    dis.h = font_44_22_zkqk_num_desc.h;
    1fca:	02c00793          	li	a5,44
    1fce:	4929                	li	s2,10
    1fd0:	02f11323          	sh	a5,38(sp)
C:\MRS_DATA\workspace\CH583M_Watch\obj/../src/oled.c:2933
    if(update_flag & (0x01 << 4))
    1fd4:	0324f7b3          	remu	a5,s1,s2
    1fd8:	08400c13          	li	s8,132
    1fdc:	010b7713          	andi	a4,s6,16
    1fe0:	01c14683          	lbu	a3,28(sp)
    1fe4:	038787b3          	mul	a5,a5,s8
    1fe8:	97de                	add	a5,a5,s7
    1fea:	16070763          	beqz	a4,2158 <Time_Display+0x56c>
C:\MRS_DATA\workspace\CH583M_Watch\obj/../src/oled.c:2936
    {
        //时数个位滑显
        dis.off_y = -(ANIM_STEP - cnt) * img.h / ANIM_STEP;
    1fee:	01d14603          	lbu	a2,29(sp)
    1ff2:	0ffa7a93          	andi	s5,s4,255
    1ff6:	ff1a8713          	addi	a4,s5,-15
    1ffa:	02c70733          	mul	a4,a4,a2
    1ffe:	49bd                	li	s3,15
C:\MRS_DATA\workspace\CH583M_Watch\obj/../src/oled.c:2938

        img.font = (uint8_t *)(font_44_22_zkqk_num_desc.font + ((hou % 10) * offset_p));
    2000:	cc3e                	sw	a5,24(sp)
C:\MRS_DATA\workspace\CH583M_Watch\obj/../src/oled.c:2942
        dis.x = img.w;
        dis.y = 16;

        OLED_Show_Picture(&img, &dis);
    2002:	100c                	addi	a1,sp,32
C:\MRS_DATA\workspace\CH583M_Watch\obj/../src/oled.c:2940
        dis.y = 16;
    2004:	47c1                	li	a5,16
C:\MRS_DATA\workspace\CH583M_Watch\obj/../src/oled.c:2942
        OLED_Show_Picture(&img, &dis);
    2006:	0848                	addi	a0,sp,20
C:\MRS_DATA\workspace\CH583M_Watch\obj/../src/oled.c:2940
        dis.y = 16;
    2008:	02f11123          	sh	a5,34(sp)
C:\MRS_DATA\workspace\CH583M_Watch\obj/../src/oled.c:2939
        dis.x = img.w;
    200c:	02d11023          	sh	a3,32(sp)
C:\MRS_DATA\workspace\CH583M_Watch\obj/../src/oled.c:2936
        dis.off_y = -(ANIM_STEP - cnt) * img.h / ANIM_STEP;
    2010:	03374733          	div	a4,a4,s3
    2014:	02e11523          	sh	a4,42(sp)
C:\MRS_DATA\workspace\CH583M_Watch\obj/../src/oled.c:2942
        OLED_Show_Picture(&img, &dis);
    2018:	dccff0ef          	jal	ra,15e4 <OLED_Show_Picture>
C:\MRS_DATA\workspace\CH583M_Watch\obj/../src/oled.c:2946

        img.font = (uint8_t *)(font_44_22_zkqk_num_desc.font + ((ne_hou % 10) * offset_p));
        dis.off_y = 0;
        dis.x = img.w;
    201c:	01c14783          	lbu	a5,28(sp)
C:\MRS_DATA\workspace\CH583M_Watch\obj/../src/oled.c:2947
        dis.y = 16 + cnt * img.h / ANIM_STEP;
    2020:	01d14703          	lbu	a4,29(sp)
C:\MRS_DATA\workspace\CH583M_Watch\obj/../src/oled.c:2944
        img.font = (uint8_t *)(font_44_22_zkqk_num_desc.font + ((ne_hou % 10) * offset_p));
    2024:	03247933          	remu	s2,s0,s2
C:\MRS_DATA\workspace\CH583M_Watch\obj/../src/oled.c:2946
        dis.x = img.w;
    2028:	02f11023          	sh	a5,32(sp)
C:\MRS_DATA\workspace\CH583M_Watch\obj/../src/oled.c:2945
        dis.off_y = 0;
    202c:	02011523          	sh	zero,42(sp)
C:\MRS_DATA\workspace\CH583M_Watch\obj/../src/oled.c:2947
        dis.y = 16 + cnt * img.h / ANIM_STEP;
    2030:	035707b3          	mul	a5,a4,s5
    2034:	0337c7b3          	div	a5,a5,s3
C:\MRS_DATA\workspace\CH583M_Watch\obj/../src/oled.c:2948
        dis.h = (ANIM_STEP - cnt) * img.h;
    2038:	415989b3          	sub	s3,s3,s5
C:\MRS_DATA\workspace\CH583M_Watch\obj/../src/oled.c:2944
        img.font = (uint8_t *)(font_44_22_zkqk_num_desc.font + ((ne_hou % 10) * offset_p));
    203c:	03890933          	mul	s2,s2,s8
C:\MRS_DATA\workspace\CH583M_Watch\obj/../src/oled.c:2947
        dis.y = 16 + cnt * img.h / ANIM_STEP;
    2040:	07c1                	addi	a5,a5,16
    2042:	02f11123          	sh	a5,34(sp)
C:\MRS_DATA\workspace\CH583M_Watch\obj/../src/oled.c:2948
        dis.h = (ANIM_STEP - cnt) * img.h;
    2046:	02e989b3          	mul	s3,s3,a4
C:\MRS_DATA\workspace\CH583M_Watch\obj/../src/oled.c:2944
        img.font = (uint8_t *)(font_44_22_zkqk_num_desc.font + ((ne_hou % 10) * offset_p));
    204a:	995e                	add	s2,s2,s7
    204c:	cc4a                	sw	s2,24(sp)
C:\MRS_DATA\workspace\CH583M_Watch\obj/../src/oled.c:2948
        dis.h = (ANIM_STEP - cnt) * img.h;
    204e:	03311323          	sh	s3,38(sp)
C:\MRS_DATA\workspace\CH583M_Watch\obj/../src/oled.c:2957
    {
        //时数个位常显
        img.font = (uint8_t *)(font_44_22_zkqk_num_desc.font + ((hou % 10) * offset_p));
        dis.x = img.w;
        dis.y = 16;
        OLED_Show_Picture(&img, &dis);
    2052:	100c                	addi	a1,sp,32
    2054:	0848                	addi	a0,sp,20
    2056:	4c29                	li	s8,10
    2058:	d8cff0ef          	jal	ra,15e4 <OLED_Show_Picture>
C:\MRS_DATA\workspace\CH583M_Watch\obj/../src/oled.c:2959
    }
    dis.h = font_44_22_zkqk_num_desc.h;
    205c:	0384d4b3          	divu	s1,s1,s8
    2060:	4a8d                	li	s5,3
    2062:	08400993          	li	s3,132
    2066:	02c00793          	li	a5,44
    206a:	02f11323          	sh	a5,38(sp)
C:\MRS_DATA\workspace\CH583M_Watch\obj/../src/oled.c:2960
    if(update_flag & (0x01 << 5))
    206e:	020b7b13          	andi	s6,s6,32
    2072:	0354f4b3          	remu	s1,s1,s5
    2076:	033484b3          	mul	s1,s1,s3
    207a:	94de                	add	s1,s1,s7
    207c:	0e0b0563          	beqz	s6,2166 <Time_Display+0x57a>
C:\MRS_DATA\workspace\CH583M_Watch\obj/../src/oled.c:2963
    {
        //时数十位滑显
        dis.off_y = -(ANIM_STEP - cnt) * img.h / ANIM_STEP;
    2080:	01d14703          	lbu	a4,29(sp)
    2084:	0ffa7a13          	andi	s4,s4,255
    2088:	ff1a0793          	addi	a5,s4,-15
    208c:	02e787b3          	mul	a5,a5,a4
    2090:	493d                	li	s2,15
C:\MRS_DATA\workspace\CH583M_Watch\obj/../src/oled.c:2969

        img.font = (uint8_t *)(font_44_22_zkqk_num_desc.font + (((hou / 10) % 3) * offset_p));
        dis.x = 0;
        dis.y = 16;
        //PRINT("dis1:x:%d,y:%d,w:%d,h:%d,ox:%d,oy:%d\r\n", dis.x,dis.y,dis.w,dis.h,dis.off_x,dis.off_y);
        OLED_Show_Picture(&img, &dis);
    2092:	100c                	addi	a1,sp,32
    2094:	0848                	addi	a0,sp,20
C:\MRS_DATA\workspace\CH583M_Watch\obj/../src/oled.c:2965
        img.font = (uint8_t *)(font_44_22_zkqk_num_desc.font + (((hou / 10) % 3) * offset_p));
    2096:	cc26                	sw	s1,24(sp)
C:\MRS_DATA\workspace\CH583M_Watch\obj/../src/oled.c:2963
        dis.off_y = -(ANIM_STEP - cnt) * img.h / ANIM_STEP;
    2098:	0327c7b3          	div	a5,a5,s2
    209c:	02f11523          	sh	a5,42(sp)
C:\MRS_DATA\workspace\CH583M_Watch\obj/../src/oled.c:2966
        dis.x = 0;
    20a0:	001007b7          	lui	a5,0x100
    20a4:	d03e                	sw	a5,32(sp)
C:\MRS_DATA\workspace\CH583M_Watch\obj/../src/oled.c:2969
        OLED_Show_Picture(&img, &dis);
    20a6:	d3eff0ef          	jal	ra,15e4 <OLED_Show_Picture>
C:\MRS_DATA\workspace\CH583M_Watch\obj/../src/oled.c:2971

        img.font = (uint8_t *)(font_44_22_zkqk_num_desc.font + (((ne_hou / 10) % 3) * offset_p));
    20aa:	03845433          	divu	s0,s0,s8
C:\MRS_DATA\workspace\CH583M_Watch\obj/../src/oled.c:2974
        dis.off_y = 0;
        dis.x = 0;
        dis.y = 16 + cnt * img.h / ANIM_STEP;
    20ae:	01d14703          	lbu	a4,29(sp)
C:\MRS_DATA\workspace\CH583M_Watch\obj/../src/oled.c:2972
        dis.off_y = 0;
    20b2:	02011523          	sh	zero,42(sp)
C:\MRS_DATA\workspace\CH583M_Watch\obj/../src/oled.c:2973
        dis.x = 0;
    20b6:	02011023          	sh	zero,32(sp)
C:\MRS_DATA\workspace\CH583M_Watch\obj/../src/oled.c:2974
        dis.y = 16 + cnt * img.h / ANIM_STEP;
    20ba:	034707b3          	mul	a5,a4,s4
C:\MRS_DATA\workspace\CH583M_Watch\obj/../src/oled.c:2975
        dis.h = (ANIM_STEP - cnt) * img.h;
    20be:	41490a33          	sub	s4,s2,s4
C:\MRS_DATA\workspace\CH583M_Watch\obj/../src/oled.c:2971
        img.font = (uint8_t *)(font_44_22_zkqk_num_desc.font + (((ne_hou / 10) % 3) * offset_p));
    20c2:	03547433          	remu	s0,s0,s5
C:\MRS_DATA\workspace\CH583M_Watch\obj/../src/oled.c:2974
        dis.y = 16 + cnt * img.h / ANIM_STEP;
    20c6:	0327c7b3          	div	a5,a5,s2
C:\MRS_DATA\workspace\CH583M_Watch\obj/../src/oled.c:2971
        img.font = (uint8_t *)(font_44_22_zkqk_num_desc.font + (((ne_hou / 10) % 3) * offset_p));
    20ca:	03340433          	mul	s0,s0,s3
C:\MRS_DATA\workspace\CH583M_Watch\obj/../src/oled.c:2974
        dis.y = 16 + cnt * img.h / ANIM_STEP;
    20ce:	07c1                	addi	a5,a5,16
    20d0:	02f11123          	sh	a5,34(sp)
C:\MRS_DATA\workspace\CH583M_Watch\obj/../src/oled.c:2975
        dis.h = (ANIM_STEP - cnt) * img.h;
    20d4:	02ea0a33          	mul	s4,s4,a4
C:\MRS_DATA\workspace\CH583M_Watch\obj/../src/oled.c:2971
        img.font = (uint8_t *)(font_44_22_zkqk_num_desc.font + (((ne_hou / 10) % 3) * offset_p));
    20d8:	9ba2                	add	s7,s7,s0
    20da:	cc5e                	sw	s7,24(sp)
C:\MRS_DATA\workspace\CH583M_Watch\obj/../src/oled.c:2975
        dis.h = (ANIM_STEP - cnt) * img.h;
    20dc:	03411323          	sh	s4,38(sp)
C:\MRS_DATA\workspace\CH583M_Watch\obj/../src/oled.c:2985
    {
        //时数十位常显
        img.font = (uint8_t *)(font_44_22_zkqk_num_desc.font + (((hou / 10) % 3) * offset_p));
        dis.x = 0;
        dis.y = 16;
        OLED_Show_Picture(&img, &dis);
    20e0:	100c                	addi	a1,sp,32
    20e2:	0848                	addi	a0,sp,20
    20e4:	d00ff0ef          	jal	ra,15e4 <OLED_Show_Picture>
C:\MRS_DATA\workspace\CH583M_Watch\obj/../src/oled.c:2988
    }

    if(msec > 800)
    20e8:	32000793          	li	a5,800
    20ec:	03b7f963          	bgeu	a5,s11,211e <Time_Display+0x532>
C:\MRS_DATA\workspace\CH583M_Watch\obj/../src/oled.c:2990
    {
        img.font = img_mh_tab;
    20f0:	00003797          	auipc	a5,0x3
    20f4:	25478793          	addi	a5,a5,596 # 5344 <img_mh_tab>
    20f8:	cc3e                	sw	a5,24(sp)
C:\MRS_DATA\workspace\CH583M_Watch\obj/../src/oled.c:2991
        img.w = 8;
    20fa:	678d                	lui	a5,0x3
    20fc:	c0878793          	addi	a5,a5,-1016 # 2c08 <__sflush_r+0xd0>
    2100:	00f11e23          	sh	a5,28(sp)
C:\MRS_DATA\workspace\CH583M_Watch\obj/../src/oled.c:2993
        img.h = 44;
        dis.x = font_44_22_zkqk_num_desc.w * 2;
    2104:	001007b7          	lui	a5,0x100
    2108:	02c78793          	addi	a5,a5,44 # 10002c <_data_lma+0xfaa98>
    210c:	d03e                	sw	a5,32(sp)
C:\MRS_DATA\workspace\CH583M_Watch\obj/../src/oled.c:2995
        dis.y = 16;
        dis.w = img.w;
    210e:	002c07b7          	lui	a5,0x2c0
    2112:	07a1                	addi	a5,a5,8
C:\MRS_DATA\workspace\CH583M_Watch\obj/../src/oled.c:2997
        dis.h = img.h;
        OLED_Show_Picture(&img, &dis);
    2114:	100c                	addi	a1,sp,32
    2116:	0848                	addi	a0,sp,20
C:\MRS_DATA\workspace\CH583M_Watch\obj/../src/oled.c:2995
        dis.w = img.w;
    2118:	d23e                	sw	a5,36(sp)
C:\MRS_DATA\workspace\CH583M_Watch\obj/../src/oled.c:2997
        OLED_Show_Picture(&img, &dis);
    211a:	ccaff0ef          	jal	ra,15e4 <OLED_Show_Picture>
C:\MRS_DATA\workspace\CH583M_Watch\obj/../src/oled.c:2999
    }
}
    211e:	50b6                	lw	ra,108(sp)
    2120:	5426                	lw	s0,104(sp)
    2122:	5496                	lw	s1,100(sp)
    2124:	5906                	lw	s2,96(sp)
    2126:	49f6                	lw	s3,92(sp)
    2128:	4a66                	lw	s4,88(sp)
    212a:	4ad6                	lw	s5,84(sp)
    212c:	4b46                	lw	s6,80(sp)
    212e:	4bb6                	lw	s7,76(sp)
    2130:	4c26                	lw	s8,72(sp)
    2132:	4c96                	lw	s9,68(sp)
    2134:	4d06                	lw	s10,64(sp)
    2136:	5df2                	lw	s11,60(sp)
    2138:	6165                	addi	sp,sp,112
    213a:	8082                	ret
C:\MRS_DATA\workspace\CH583M_Watch\obj/../src/oled.c:2901
        img.font = (uint8_t *)(font_44_22_zkqk_num_desc.font + ((min % 10) * offset_p));
    213c:	cc3e                	sw	a5,24(sp)
C:\MRS_DATA\workspace\CH583M_Watch\obj/../src/oled.c:2902
        dis.x = img.w * 3 + 8;
    213e:	001007b7          	lui	a5,0x100
    2142:	04a78793          	addi	a5,a5,74 # 10004a <_data_lma+0xfaab6>
    2146:	d03e                	sw	a5,32(sp)
    2148:	bbd9                	j	1f1e <Time_Display+0x332>
C:\MRS_DATA\workspace\CH583M_Watch\obj/../src/oled.c:2928
        dis.x = img.w * 2 + 8;
    214a:	02f11023          	sh	a5,32(sp)
C:\MRS_DATA\workspace\CH583M_Watch\obj/../src/oled.c:2929
        dis.y = 16;
    214e:	47c1                	li	a5,16
C:\MRS_DATA\workspace\CH583M_Watch\obj/../src/oled.c:2927
        img.font = (uint8_t *)(font_44_22_zkqk_num_desc.font + (((min / 10) % 6) * offset_p));
    2150:	cc56                	sw	s5,24(sp)
C:\MRS_DATA\workspace\CH583M_Watch\obj/../src/oled.c:2929
        dis.y = 16;
    2152:	02f11123          	sh	a5,34(sp)
    2156:	b5b5                	j	1fc2 <Time_Display+0x3d6>
C:\MRS_DATA\workspace\CH583M_Watch\obj/../src/oled.c:2954
        img.font = (uint8_t *)(font_44_22_zkqk_num_desc.font + ((hou % 10) * offset_p));
    2158:	cc3e                	sw	a5,24(sp)
C:\MRS_DATA\workspace\CH583M_Watch\obj/../src/oled.c:2956
        dis.y = 16;
    215a:	47c1                	li	a5,16
C:\MRS_DATA\workspace\CH583M_Watch\obj/../src/oled.c:2955
        dis.x = img.w;
    215c:	02d11023          	sh	a3,32(sp)
C:\MRS_DATA\workspace\CH583M_Watch\obj/../src/oled.c:2956
        dis.y = 16;
    2160:	02f11123          	sh	a5,34(sp)
    2164:	b5fd                	j	2052 <Time_Display+0x466>
C:\MRS_DATA\workspace\CH583M_Watch\obj/../src/oled.c:2983
        dis.x = 0;
    2166:	001007b7          	lui	a5,0x100
C:\MRS_DATA\workspace\CH583M_Watch\obj/../src/oled.c:2982
        img.font = (uint8_t *)(font_44_22_zkqk_num_desc.font + (((hou / 10) % 3) * offset_p));
    216a:	cc26                	sw	s1,24(sp)
C:\MRS_DATA\workspace\CH583M_Watch\obj/../src/oled.c:2983
        dis.x = 0;
    216c:	d03e                	sw	a5,32(sp)
    216e:	bf8d                	j	20e0 <Time_Display+0x4f4>

00002170 <OLED_Init>:
OLED_Init():
C:\MRS_DATA\workspace\CH583M_Watch\obj/../src/oled.c:3106
    }
}

//初始化SSD1306
void OLED_Init(void)
{
    2170:	1101                	addi	sp,sp,-32
    2172:	cc22                	sw	s0,24(sp)
C:\MRS_DATA\workspace\CH583M_Watch\obj/../src/oled.c:3107
    GPIOB_SetBits(GPIO_Pin_17);//CS
    2174:	40001437          	lui	s0,0x40001
    2178:	0c842783          	lw	a5,200(s0) # 400010c8 <_eusrstack+0x1fff90c8>
C:\MRS_DATA\workspace\CH583M_Watch\obj/../src/oled.c:3106
{
    217c:	c64e                	sw	s3,12(sp)
C:\MRS_DATA\workspace\CH583M_Watch\obj/../src/oled.c:3107
    GPIOB_SetBits(GPIO_Pin_17);//CS
    217e:	000209b7          	lui	s3,0x20
C:\MRS_DATA\workspace\CH583M_Watch\obj/../src/oled.c:3106
{
    2182:	ce06                	sw	ra,28(sp)
    2184:	ca26                	sw	s1,20(sp)
    2186:	c84a                	sw	s2,16(sp)
C:\MRS_DATA\workspace\CH583M_Watch\obj/../src/oled.c:3107
    GPIOB_SetBits(GPIO_Pin_17);//CS
    2188:	0137e7b3          	or	a5,a5,s3
    218c:	0cf42423          	sw	a5,200(s0)
C:\MRS_DATA\workspace\CH583M_Watch\obj/../src/oled.c:3108
    GPIOB_SetBits(GPIO_Pin_16);//RST
    2190:	0c842783          	lw	a5,200(s0)
    2194:	64c1                	lui	s1,0x10
C:\MRS_DATA\workspace\CH583M_Watch\obj/../src/oled.c:3109
    GPIOB_SetBits(GPIO_Pin_15);//DC
    2196:	6921                	lui	s2,0x8
C:\MRS_DATA\workspace\CH583M_Watch\obj/../src/oled.c:3108
    GPIOB_SetBits(GPIO_Pin_16);//RST
    2198:	8fc5                	or	a5,a5,s1
    219a:	0cf42423          	sw	a5,200(s0)
C:\MRS_DATA\workspace\CH583M_Watch\obj/../src/oled.c:3109
    GPIOB_SetBits(GPIO_Pin_15);//DC
    219e:	0c842683          	lw	a3,200(s0)
C:\MRS_DATA\workspace\CH583M_Watch\obj/../src/oled.c:3111

    GPIOB_ModeCfg(GPIO_Pin_17, GPIO_ModeOut_PP_5mA);//CS
    21a2:	458d                	li	a1,3
    21a4:	00020537          	lui	a0,0x20
C:\MRS_DATA\workspace\CH583M_Watch\obj/../src/oled.c:3109
    GPIOB_SetBits(GPIO_Pin_15);//DC
    21a8:	0126e6b3          	or	a3,a3,s2
    21ac:	0cd42423          	sw	a3,200(s0)
C:\MRS_DATA\workspace\CH583M_Watch\obj/../src/oled.c:3111
    GPIOB_ModeCfg(GPIO_Pin_17, GPIO_ModeOut_PP_5mA);//CS
    21b0:	2689                	jal	24f2 <GPIOB_ModeCfg>
C:\MRS_DATA\workspace\CH583M_Watch\obj/../src/oled.c:3112
    GPIOB_ModeCfg(GPIO_Pin_16, GPIO_ModeOut_PP_5mA);//RST
    21b2:	458d                	li	a1,3
    21b4:	6541                	lui	a0,0x10
    21b6:	2e35                	jal	24f2 <GPIOB_ModeCfg>
C:\MRS_DATA\workspace\CH583M_Watch\obj/../src/oled.c:3113
    GPIOB_ModeCfg(GPIO_Pin_15, GPIO_ModeOut_PP_5mA);//DC
    21b8:	458d                	li	a1,3
    21ba:	6521                	lui	a0,0x8
    21bc:	2e1d                	jal	24f2 <GPIOB_ModeCfg>
C:\MRS_DATA\workspace\CH583M_Watch\obj/../src/oled.c:3115

    GPIOB_ModeCfg(GPIO_Pin_13 | GPIO_Pin_14, GPIO_ModeOut_PP_5mA);
    21be:	458d                	li	a1,3
    21c0:	6519                	lui	a0,0x6
    21c2:	2e05                	jal	24f2 <GPIOB_ModeCfg>
C:\MRS_DATA\workspace\CH583M_Watch\obj/../src/oled.c:3116
    R16_PIN_ALTERNATE |= RB_PIN_SPI0;
    21c4:	01845683          	lhu	a3,24(s0)
C:\MRS_DATA\workspace\CH583M_Watch\obj/../src/oled.c:3117
    R8_SPI0_CLOCK_DIV = 8; // 主频时钟4分频
    21c8:	400047b7          	lui	a5,0x40004
    21cc:	4721                	li	a4,8
C:\MRS_DATA\workspace\CH583M_Watch\obj/../src/oled.c:3116
    R16_PIN_ALTERNATE |= RB_PIN_SPI0;
    21ce:	1006e693          	ori	a3,a3,256
    21d2:	00d41c23          	sh	a3,24(s0)
C:\MRS_DATA\workspace\CH583M_Watch\obj/../src/oled.c:3117
    R8_SPI0_CLOCK_DIV = 8; // 主频时钟4分频
    21d6:	00e781a3          	sb	a4,3(a5) # 40004003 <_eusrstack+0x1fffc003>
C:\MRS_DATA\workspace\CH583M_Watch\obj/../src/oled.c:3118
    R8_SPI0_CTRL_MOD = RB_SPI_ALL_CLEAR;
    21da:	4709                	li	a4,2
    21dc:	00e78023          	sb	a4,0(a5)
C:\MRS_DATA\workspace\CH583M_Watch\obj/../src/oled.c:3119
    R8_SPI0_CTRL_MOD = RB_SPI_MOSI_OE | RB_SPI_SCK_OE;
    21e0:	06000713          	li	a4,96
    21e4:	00e78023          	sb	a4,0(a5)
C:\MRS_DATA\workspace\CH583M_Watch\obj/../src/oled.c:3120
    R8_SPI0_CTRL_CFG |= RB_SPI_AUTO_IF;     // 访问BUFFER/FIFO自动清除IF_BYTE_END标志
    21e8:	0017c683          	lbu	a3,1(a5)
C:\MRS_DATA\workspace\CH583M_Watch\obj/../src/oled.c:3122
    R8_SPI0_CTRL_CFG &= ~RB_SPI_DMA_ENABLE; // 不启动DMA方式
    SPI0_DataMode(3);
    21ec:	450d                	li	a0,3
C:\MRS_DATA\workspace\CH583M_Watch\obj/../src/oled.c:3120
    R8_SPI0_CTRL_CFG |= RB_SPI_AUTO_IF;     // 访问BUFFER/FIFO自动清除IF_BYTE_END标志
    21ee:	0106e693          	ori	a3,a3,16
    21f2:	00d780a3          	sb	a3,1(a5)
C:\MRS_DATA\workspace\CH583M_Watch\obj/../src/oled.c:3121
    R8_SPI0_CTRL_CFG &= ~RB_SPI_DMA_ENABLE; // 不启动DMA方式
    21f6:	0017c683          	lbu	a3,1(a5)
    21fa:	0fe6f693          	andi	a3,a3,254
    21fe:	00d780a3          	sb	a3,1(a5)
C:\MRS_DATA\workspace\CH583M_Watch\obj/../src/oled.c:3122
    SPI0_DataMode(3);
    2202:	2e59                	jal	2598 <SPI0_DataMode>
C:\MRS_DATA\workspace\CH583M_Watch\obj/../src/oled.c:3126

    oled_ctr.height = OLED_H;
    oled_ctr.widget = OLED_W;
    oled_ctr.oled_cur_pos_x = 0;
    2204:	20001797          	auipc	a5,0x20001
    2208:	d1078793          	addi	a5,a5,-752 # 20002f14 <oled_ctr>
C:\MRS_DATA\workspace\CH583M_Watch\obj/../src/oled.c:3130
    oled_ctr.oled_cur_pos_y = 0;
    oled_ctr.oled_offset_x = 0;
    oled_ctr.oled_offset_y = 0;
    oled_ctr.oled_page_h = OLED_PAGE_H;
    220c:	20200713          	li	a4,514
    2210:	00e79223          	sh	a4,4(a5)
C:\MRS_DATA\workspace\CH583M_Watch\obj/../src/oled.c:3132
    oled_ctr.oled_page_v = OLED_PAGE_V;
    oled_ctr.oled_move_dir = 0;
    2214:	00078323          	sb	zero,6(a5)
C:\MRS_DATA\workspace\CH583M_Watch\obj/../src/oled.c:3134

    OLED_CS_Set();
    2218:	0c842703          	lw	a4,200(s0)
C:\MRS_DATA\workspace\CH583M_Watch\obj/../src/oled.c:3125
    oled_ctr.widget = OLED_W;
    221c:	008006b7          	lui	a3,0x800
    2220:	10068693          	addi	a3,a3,256 # 800100 <_data_lma+0x7fab6c>
    2224:	c394                	sw	a3,0(a5)
C:\MRS_DATA\workspace\CH583M_Watch\obj/../src/oled.c:3134
    OLED_CS_Set();
    2226:	01376733          	or	a4,a4,s3
C:\MRS_DATA\workspace\CH583M_Watch\obj/../src/oled.c:3126
    oled_ctr.oled_cur_pos_x = 0;
    222a:	0007a423          	sw	zero,8(a5)
C:\MRS_DATA\workspace\CH583M_Watch\obj/../src/oled.c:3128
    oled_ctr.oled_offset_x = 0;
    222e:	0007a623          	sw	zero,12(a5)
C:\MRS_DATA\workspace\CH583M_Watch\obj/../src/oled.c:3134
    OLED_CS_Set();
    2232:	0ce42423          	sw	a4,200(s0)
C:\MRS_DATA\workspace\CH583M_Watch\obj/../src/oled.c:3135
    OLED_DC_Set();
    2236:	0c842783          	lw	a5,200(s0)
C:\MRS_DATA\workspace\CH583M_Watch\obj/../src/oled.c:3137
    OLED_RES_Set();
    DelayMs(10);
    223a:	4529                	li	a0,10
C:\MRS_DATA\workspace\CH583M_Watch\obj/../src/oled.c:3135
    OLED_DC_Set();
    223c:	0127e7b3          	or	a5,a5,s2
    2240:	0cf42423          	sw	a5,200(s0)
C:\MRS_DATA\workspace\CH583M_Watch\obj/../src/oled.c:3136
    OLED_RES_Set();
    2244:	0c842783          	lw	a5,200(s0)
    2248:	8fc5                	or	a5,a5,s1
    224a:	0cf42423          	sw	a5,200(s0)
C:\MRS_DATA\workspace\CH583M_Watch\obj/../src/oled.c:3137
    DelayMs(10);
    224e:	1fffe097          	auipc	ra,0x1fffe
    2252:	590080e7          	jalr	1424(ra) # 200007de <mDelaymS>
C:\MRS_DATA\workspace\CH583M_Watch\obj/../src/oled.c:3138
    OLED_RES_Clr();
    2256:	0cc42783          	lw	a5,204(s0)
C:\MRS_DATA\workspace\CH583M_Watch\obj/../src/oled.c:3139
    DelayMs(120);
    225a:	07800513          	li	a0,120
C:\MRS_DATA\workspace\CH583M_Watch\obj/../src/oled.c:3138
    OLED_RES_Clr();
    225e:	8fc5                	or	a5,a5,s1
    2260:	0cf42623          	sw	a5,204(s0)
C:\MRS_DATA\workspace\CH583M_Watch\obj/../src/oled.c:3139
    DelayMs(120);
    2264:	1fffe097          	auipc	ra,0x1fffe
    2268:	57a080e7          	jalr	1402(ra) # 200007de <mDelaymS>
C:\MRS_DATA\workspace\CH583M_Watch\obj/../src/oled.c:3140
    OLED_RES_Set();
    226c:	0c842783          	lw	a5,200(s0)
C:\MRS_DATA\workspace\CH583M_Watch\obj/../src/oled.c:3142

    OLED_WR_Byte(0xAE,OLED_CMD); //关闭显示
    2270:	4581                	li	a1,0
    2272:	0ae00513          	li	a0,174
C:\MRS_DATA\workspace\CH583M_Watch\obj/../src/oled.c:3140
    OLED_RES_Set();
    2276:	8cdd                	or	s1,s1,a5
    2278:	0c942423          	sw	s1,200(s0)
C:\MRS_DATA\workspace\CH583M_Watch\obj/../src/oled.c:3142
    OLED_WR_Byte(0xAE,OLED_CMD); //关闭显示
    227c:	94aff0ef          	jal	ra,13c6 <OLED_WR_Byte>
C:\MRS_DATA\workspace\CH583M_Watch\obj/../src/oled.c:3143
    OLED_WR_Byte(0xD5,OLED_CMD); //设置时钟分频因子,震荡频率
    2280:	4581                	li	a1,0
    2282:	0d500513          	li	a0,213
    2286:	940ff0ef          	jal	ra,13c6 <OLED_WR_Byte>
C:\MRS_DATA\workspace\CH583M_Watch\obj/../src/oled.c:3144
    OLED_WR_Byte(80,OLED_CMD);   //[3:0],分频因子;[7:4],震荡频率
    228a:	4581                	li	a1,0
    228c:	05000513          	li	a0,80
    2290:	936ff0ef          	jal	ra,13c6 <OLED_WR_Byte>
C:\MRS_DATA\workspace\CH583M_Watch\obj/../src/oled.c:3145
    OLED_WR_Byte(0xA8,OLED_CMD); //设置驱动路数
    2294:	4581                	li	a1,0
    2296:	0a800513          	li	a0,168
    229a:	92cff0ef          	jal	ra,13c6 <OLED_WR_Byte>
C:\MRS_DATA\workspace\CH583M_Watch\obj/../src/oled.c:3146
    OLED_WR_Byte(0X3F,OLED_CMD); //默认0X3F(1/64)
    229e:	4581                	li	a1,0
    22a0:	03f00513          	li	a0,63
    22a4:	922ff0ef          	jal	ra,13c6 <OLED_WR_Byte>
C:\MRS_DATA\workspace\CH583M_Watch\obj/../src/oled.c:3147
    OLED_WR_Byte(0xD3,OLED_CMD); //设置显示偏移
    22a8:	4581                	li	a1,0
    22aa:	0d300513          	li	a0,211
    22ae:	918ff0ef          	jal	ra,13c6 <OLED_WR_Byte>
C:\MRS_DATA\workspace\CH583M_Watch\obj/../src/oled.c:3148
    OLED_WR_Byte(0X00,OLED_CMD); //默认为0
    22b2:	4581                	li	a1,0
    22b4:	4501                	li	a0,0
    22b6:	910ff0ef          	jal	ra,13c6 <OLED_WR_Byte>
C:\MRS_DATA\workspace\CH583M_Watch\obj/../src/oled.c:3150

    OLED_WR_Byte(0x40,OLED_CMD); //设置显示开始行 [5:0],行数.
    22ba:	4581                	li	a1,0
    22bc:	04000513          	li	a0,64
    22c0:	906ff0ef          	jal	ra,13c6 <OLED_WR_Byte>
C:\MRS_DATA\workspace\CH583M_Watch\obj/../src/oled.c:3152

    OLED_WR_Byte(0x8D,OLED_CMD); //电荷泵设置
    22c4:	4581                	li	a1,0
    22c6:	08d00513          	li	a0,141
    22ca:	8fcff0ef          	jal	ra,13c6 <OLED_WR_Byte>
C:\MRS_DATA\workspace\CH583M_Watch\obj/../src/oled.c:3153
    OLED_WR_Byte(0x14,OLED_CMD); //bit2，开启/关闭
    22ce:	4581                	li	a1,0
    22d0:	4551                	li	a0,20
    22d2:	8f4ff0ef          	jal	ra,13c6 <OLED_WR_Byte>
C:\MRS_DATA\workspace\CH583M_Watch\obj/../src/oled.c:3154
    OLED_WR_Byte(0x20,OLED_CMD); //设置内存地址模式
    22d6:	4581                	li	a1,0
    22d8:	02000513          	li	a0,32
    22dc:	8eaff0ef          	jal	ra,13c6 <OLED_WR_Byte>
C:\MRS_DATA\workspace\CH583M_Watch\obj/../src/oled.c:3155
    OLED_WR_Byte(0x02,OLED_CMD); //[1:0],00，列地址模式;01，行地址模式;10,页地址模式;默认10;
    22e0:	4581                	li	a1,0
    22e2:	4509                	li	a0,2
    22e4:	8e2ff0ef          	jal	ra,13c6 <OLED_WR_Byte>
C:\MRS_DATA\workspace\CH583M_Watch\obj/../src/oled.c:3156
    OLED_WR_Byte(0xA1,OLED_CMD); //段重定义设置,bit0:0,0->0;1,0->127;
    22e8:	4581                	li	a1,0
    22ea:	0a100513          	li	a0,161
    22ee:	8d8ff0ef          	jal	ra,13c6 <OLED_WR_Byte>
C:\MRS_DATA\workspace\CH583M_Watch\obj/../src/oled.c:3157
    OLED_WR_Byte(0xC8,OLED_CMD); //设置COM扫描方向;bit3:0,普通模式;1,重定义模式 COM[N-1]->COM0;N:驱动路数
    22f2:	4581                	li	a1,0
    22f4:	0c800513          	li	a0,200
    22f8:	8ceff0ef          	jal	ra,13c6 <OLED_WR_Byte>
C:\MRS_DATA\workspace\CH583M_Watch\obj/../src/oled.c:3158
    OLED_WR_Byte(0xDA,OLED_CMD); //设置COM硬件引脚配置
    22fc:	4581                	li	a1,0
    22fe:	0da00513          	li	a0,218
    2302:	8c4ff0ef          	jal	ra,13c6 <OLED_WR_Byte>
C:\MRS_DATA\workspace\CH583M_Watch\obj/../src/oled.c:3159
    OLED_WR_Byte(0x12,OLED_CMD); //[5:4]配置
    2306:	4581                	li	a1,0
    2308:	4549                	li	a0,18
    230a:	8bcff0ef          	jal	ra,13c6 <OLED_WR_Byte>
C:\MRS_DATA\workspace\CH583M_Watch\obj/../src/oled.c:3161

    OLED_WR_Byte(0x81,OLED_CMD); //对比度设置
    230e:	4581                	li	a1,0
    2310:	08100513          	li	a0,129
    2314:	8b2ff0ef          	jal	ra,13c6 <OLED_WR_Byte>
C:\MRS_DATA\workspace\CH583M_Watch\obj/../src/oled.c:3162
    OLED_WR_Byte(0xEF,OLED_CMD); //1~255;默认0X7F (亮度设置,越大越亮)
    2318:	4581                	li	a1,0
    231a:	0ef00513          	li	a0,239
    231e:	8a8ff0ef          	jal	ra,13c6 <OLED_WR_Byte>
C:\MRS_DATA\workspace\CH583M_Watch\obj/../src/oled.c:3163
    OLED_WR_Byte(0xD9,OLED_CMD); //设置预充电周期
    2322:	4581                	li	a1,0
    2324:	0d900513          	li	a0,217
    2328:	89eff0ef          	jal	ra,13c6 <OLED_WR_Byte>
C:\MRS_DATA\workspace\CH583M_Watch\obj/../src/oled.c:3164
    OLED_WR_Byte(0xf1,OLED_CMD); //[3:0],PHASE 1;[7:4],PHASE 2;
    232c:	4581                	li	a1,0
    232e:	0f100513          	li	a0,241
    2332:	894ff0ef          	jal	ra,13c6 <OLED_WR_Byte>
C:\MRS_DATA\workspace\CH583M_Watch\obj/../src/oled.c:3165
    OLED_WR_Byte(0xDB,OLED_CMD); //设置VCOMH 电压倍率
    2336:	4581                	li	a1,0
    2338:	0db00513          	li	a0,219
    233c:	88aff0ef          	jal	ra,13c6 <OLED_WR_Byte>
C:\MRS_DATA\workspace\CH583M_Watch\obj/../src/oled.c:3166
    OLED_WR_Byte(0x30,OLED_CMD); //[6:4] 000,0.65*vcc;001,0.77*vcc;011,0.83*vcc;
    2340:	4581                	li	a1,0
    2342:	03000513          	li	a0,48
    2346:	880ff0ef          	jal	ra,13c6 <OLED_WR_Byte>
C:\MRS_DATA\workspace\CH583M_Watch\obj/../src/oled.c:3168

    OLED_WR_Byte(0xA4,OLED_CMD); //全局显示开启;bit0:1,开启;0,关闭;(白屏/黑屏)
    234a:	4581                	li	a1,0
    234c:	0a400513          	li	a0,164
    2350:	876ff0ef          	jal	ra,13c6 <OLED_WR_Byte>
C:\MRS_DATA\workspace\CH583M_Watch\obj/../src/oled.c:3169
    OLED_WR_Byte(0xA6,OLED_CMD); //设置显示方式;bit0:1,反相显示;0,正常显示
    2354:	4581                	li	a1,0
    2356:	0a600513          	li	a0,166
    235a:	86cff0ef          	jal	ra,13c6 <OLED_WR_Byte>
C:\MRS_DATA\workspace\CH583M_Watch\obj/../src/oled.c:3170
    OLED_WR_Byte(0xAF,OLED_CMD); //开启显示
    235e:	0af00513          	li	a0,175
    2362:	4581                	li	a1,0
    2364:	862ff0ef          	jal	ra,13c6 <OLED_WR_Byte>
C:\MRS_DATA\workspace\CH583M_Watch\obj/../src/oled.c:3172
    OLED_Clear(0);
}
    2368:	4462                	lw	s0,24(sp)
    236a:	40f2                	lw	ra,28(sp)
    236c:	44d2                	lw	s1,20(sp)
    236e:	4942                	lw	s2,16(sp)
    2370:	49b2                	lw	s3,12(sp)
C:\MRS_DATA\workspace\CH583M_Watch\obj/../src/oled.c:3171
    OLED_Clear(0);
    2372:	4501                	li	a0,0
C:\MRS_DATA\workspace\CH583M_Watch\obj/../src/oled.c:3172
}
    2374:	6105                	addi	sp,sp,32
C:\MRS_DATA\workspace\CH583M_Watch\obj/../src/oled.c:3171
    OLED_Clear(0);
    2376:	9e0ff06f          	j	1556 <OLED_Clear>

0000237a <ADC_DataCalib_Rough>:
ADC_DataCalib_Rough():
C:\MRS_DATA\workspace\CH583M\obj/../StdPeriphDriver/CH58x_adc.c:31
    237a:	400017b7          	lui	a5,0x40001
C:\MRS_DATA\workspace\CH583M\obj/../StdPeriphDriver/CH58x_adc.c:34
    237e:	4685                	li	a3,1
C:\MRS_DATA\workspace\CH583M\obj/../StdPeriphDriver/CH58x_adc.c:31
    2380:	0587c803          	lbu	a6,88(a5) # 40001058 <_eusrstack+0x1fff9058>
C:\MRS_DATA\workspace\CH583M\obj/../StdPeriphDriver/CH58x_adc.c:32
    2384:	0597c883          	lbu	a7,89(a5)
C:\MRS_DATA\workspace\CH583M\obj/../StdPeriphDriver/CH58x_adc.c:34
    2388:	04d78c23          	sb	a3,88(a5)
C:\MRS_DATA\workspace\CH583M\obj/../StdPeriphDriver/CH58x_adc.c:35
    238c:	0597c703          	lbu	a4,89(a5)
C:\MRS_DATA\workspace\CH583M\obj/../StdPeriphDriver/CH58x_adc.c:31
    2390:	0ff87813          	andi	a6,a6,255
C:\MRS_DATA\workspace\CH583M\obj/../StdPeriphDriver/CH58x_adc.c:32
    2394:	0ff8f893          	andi	a7,a7,255
C:\MRS_DATA\workspace\CH583M\obj/../StdPeriphDriver/CH58x_adc.c:35
    2398:	00876713          	ori	a4,a4,8
    239c:	04e78ca3          	sb	a4,89(a5)
C:\MRS_DATA\workspace\CH583M\obj/../StdPeriphDriver/CH58x_adc.c:36
    23a0:	0597c703          	lbu	a4,89(a5)
    23a4:	0fb77713          	andi	a4,a4,251
    23a8:	04e78ca3          	sb	a4,89(a5)
C:\MRS_DATA\workspace\CH583M\obj/../StdPeriphDriver/CH58x_adc.c:37
    23ac:	04d78d23          	sb	a3,90(a5)
C:\MRS_DATA\workspace\CH583M\obj/../StdPeriphDriver/CH58x_adc.c:38
    23b0:	40001737          	lui	a4,0x40001
C:\MRS_DATA\workspace\CH583M\obj/../StdPeriphDriver/CH58x_adc.c:38 (discriminator 1)
    23b4:	05a74783          	lbu	a5,90(a4) # 4000105a <_eusrstack+0x1fff905a>
    23b8:	05a70613          	addi	a2,a4,90
    23bc:	8b85                	andi	a5,a5,1
    23be:	fbfd                	bnez	a5,23b4 <ADC_DataCalib_Rough+0x3a>
C:\MRS_DATA\workspace\CH583M\obj/../StdPeriphDriver/CH58x_adc.c:43
    23c0:	6505                	lui	a0,0x1
    23c2:	4741                	li	a4,16
C:\MRS_DATA\workspace\CH583M\obj/../StdPeriphDriver/CH58x_adc.c:41
    23c4:	400015b7          	lui	a1,0x40001
    23c8:	4e05                	li	t3,1
C:\MRS_DATA\workspace\CH583M\obj/../StdPeriphDriver/CH58x_adc.c:43
    23ca:	fff50313          	addi	t1,a0,-1 # fff <system_init+0xef>
C:\MRS_DATA\workspace\CH583M\obj/../StdPeriphDriver/CH58x_adc.c:41
    23ce:	01c60023          	sb	t3,0(a2)
C:\MRS_DATA\workspace\CH583M\obj/../StdPeriphDriver/CH58x_adc.c:42 (discriminator 1)
    23d2:	00064683          	lbu	a3,0(a2)
    23d6:	8a85                	andi	a3,a3,1
    23d8:	feed                	bnez	a3,23d2 <ADC_DataCalib_Rough+0x58>
C:\MRS_DATA\workspace\CH583M\obj/../StdPeriphDriver/CH58x_adc.c:43 (discriminator 2)
    23da:	05c5d683          	lhu	a3,92(a1) # 4000105c <_eusrstack+0x1fff905c>
    23de:	177d                	addi	a4,a4,-1
    23e0:	0742                	slli	a4,a4,0x10
    23e2:	fff6c693          	not	a3,a3
    23e6:	0066f6b3          	and	a3,a3,t1
    23ea:	8341                	srli	a4,a4,0x10
    23ec:	97b6                	add	a5,a5,a3
C:\MRS_DATA\workspace\CH583M\obj/../StdPeriphDriver/CH58x_adc.c:39 (discriminator 2)
    23ee:	f365                	bnez	a4,23ce <ADC_DataCalib_Rough+0x54>
C:\MRS_DATA\workspace\CH583M\obj/../StdPeriphDriver/CH58x_adc.c:45
    23f0:	07a1                	addi	a5,a5,8
    23f2:	8391                	srli	a5,a5,0x4
C:\MRS_DATA\workspace\CH583M\obj/../StdPeriphDriver/CH58x_adc.c:50
    23f4:	80050513          	addi	a0,a0,-2048
    23f8:	8d1d                	sub	a0,a0,a5
C:\MRS_DATA\workspace\CH583M\obj/../StdPeriphDriver/CH58x_adc.c:47
    23fa:	05158ca3          	sb	a7,89(a1)
C:\MRS_DATA\workspace\CH583M\obj/../StdPeriphDriver/CH58x_adc.c:51
    23fe:	0542                	slli	a0,a0,0x10
C:\MRS_DATA\workspace\CH583M\obj/../StdPeriphDriver/CH58x_adc.c:48
    2400:	05058c23          	sb	a6,88(a1)
C:\MRS_DATA\workspace\CH583M\obj/../StdPeriphDriver/CH58x_adc.c:51
    2404:	8541                	srai	a0,a0,0x10
    2406:	8082                	ret

00002408 <ADC_ExtSingleChSampInit>:
ADC_ExtSingleChSampInit():
C:\MRS_DATA\workspace\CH583M\obj/../StdPeriphDriver/CH58x_adc.c:65
    2408:	400017b7          	lui	a5,0x40001
    240c:	0577c703          	lbu	a4,87(a5) # 40001057 <_eusrstack+0x1fff9057>
C:\MRS_DATA\workspace\CH583M\obj/../StdPeriphDriver/CH58x_adc.c:66
    2410:	051a                	slli	a0,a0,0x6
    2412:	0592                	slli	a1,a1,0x4
    2414:	8d4d                	or	a0,a0,a1
C:\MRS_DATA\workspace\CH583M\obj/../StdPeriphDriver/CH58x_adc.c:65
    2416:	0fe77713          	andi	a4,a4,254
C:\MRS_DATA\workspace\CH583M\obj/../StdPeriphDriver/CH58x_adc.c:66
    241a:	00356513          	ori	a0,a0,3
C:\MRS_DATA\workspace\CH583M\obj/../StdPeriphDriver/CH58x_adc.c:65
    241e:	04e78ba3          	sb	a4,87(a5)
C:\MRS_DATA\workspace\CH583M\obj/../StdPeriphDriver/CH58x_adc.c:66
    2422:	0ff57513          	andi	a0,a0,255
    2426:	04a78ca3          	sb	a0,89(a5)
C:\MRS_DATA\workspace\CH583M\obj/../StdPeriphDriver/CH58x_adc.c:67
    242a:	8082                	ret

0000242c <ADC_ExcutSingleConver>:
ADC_ExcutSingleConver():
C:\MRS_DATA\workspace\CH583M\obj/../StdPeriphDriver/CH58x_adc.c:144
    242c:	4705                	li	a4,1
    242e:	400017b7          	lui	a5,0x40001
    2432:	04e78d23          	sb	a4,90(a5) # 4000105a <_eusrstack+0x1fff905a>
C:\MRS_DATA\workspace\CH583M\obj/../StdPeriphDriver/CH58x_adc.c:145
    2436:	40001737          	lui	a4,0x40001
C:\MRS_DATA\workspace\CH583M\obj/../StdPeriphDriver/CH58x_adc.c:145 (discriminator 1)
    243a:	05a74783          	lbu	a5,90(a4) # 4000105a <_eusrstack+0x1fff905a>
    243e:	8b85                	andi	a5,a5,1
    2440:	ffed                	bnez	a5,243a <ADC_ExcutSingleConver+0xe>
C:\MRS_DATA\workspace\CH583M\obj/../StdPeriphDriver/CH58x_adc.c:147
    2442:	05c75503          	lhu	a0,92(a4)
    2446:	0552                	slli	a0,a0,0x14
C:\MRS_DATA\workspace\CH583M\obj/../StdPeriphDriver/CH58x_adc.c:148
    2448:	8151                	srli	a0,a0,0x14
    244a:	8082                	ret

0000244c <GPIOA_ModeCfg>:
GPIOA_ModeCfg():
C:\MRS_DATA\workspace\CH583M\obj/../StdPeriphDriver/CH58x_gpio.c:27
    244c:	4791                	li	a5,4
    244e:	02b7ee63          	bltu	a5,a1,248a <GPIOA_ModeCfg+0x3e>
    2452:	00003717          	auipc	a4,0x3
    2456:	07a70713          	addi	a4,a4,122 # 54cc <img_mh_tab+0x188>
    245a:	058a                	slli	a1,a1,0x2
    245c:	95ba                	add	a1,a1,a4
    245e:	419c                	lw	a5,0(a1)
    2460:	97ba                	add	a5,a5,a4
    2462:	8782                	jr	a5
C:\MRS_DATA\workspace\CH583M\obj/../StdPeriphDriver/CH58x_gpio.c:30
    2464:	400017b7          	lui	a5,0x40001
    2468:	0b47a703          	lw	a4,180(a5) # 400010b4 <_eusrstack+0x1fff90b4>
    246c:	fff54513          	not	a0,a0
    2470:	8f69                	and	a4,a4,a0
    2472:	0ae7aa23          	sw	a4,180(a5)
C:\MRS_DATA\workspace\CH583M\obj/../StdPeriphDriver/CH58x_gpio.c:31
    2476:	0b07a703          	lw	a4,176(a5)
C:\MRS_DATA\workspace\CH583M\obj/../StdPeriphDriver/CH58x_gpio.c:43
    247a:	8f69                	and	a4,a4,a0
    247c:	0ae7a823          	sw	a4,176(a5)
C:\MRS_DATA\workspace\CH583M\obj/../StdPeriphDriver/CH58x_gpio.c:44
    2480:	0a07a703          	lw	a4,160(a5)
    2484:	8d79                	and	a0,a0,a4
C:\MRS_DATA\workspace\CH583M\obj/../StdPeriphDriver/CH58x_gpio.c:54
    2486:	0aa7a023          	sw	a0,160(a5)
C:\MRS_DATA\workspace\CH583M\obj/../StdPeriphDriver/CH58x_gpio.c:60
    248a:	8082                	ret
C:\MRS_DATA\workspace\CH583M\obj/../StdPeriphDriver/CH58x_gpio.c:36
    248c:	400017b7          	lui	a5,0x40001
    2490:	0b47a683          	lw	a3,180(a5) # 400010b4 <_eusrstack+0x1fff90b4>
    2494:	fff54713          	not	a4,a0
    2498:	8ef9                	and	a3,a3,a4
    249a:	0ad7aa23          	sw	a3,180(a5)
C:\MRS_DATA\workspace\CH583M\obj/../StdPeriphDriver/CH58x_gpio.c:37
    249e:	0b07a683          	lw	a3,176(a5)
    24a2:	8d55                	or	a0,a0,a3
    24a4:	0aa7a823          	sw	a0,176(a5)
C:\MRS_DATA\workspace\CH583M\obj/../StdPeriphDriver/CH58x_gpio.c:38
    24a8:	0a07a683          	lw	a3,160(a5)
    24ac:	8f75                	and	a4,a4,a3
    24ae:	0ae7a023          	sw	a4,160(a5)
C:\MRS_DATA\workspace\CH583M\obj/../StdPeriphDriver/CH58x_gpio.c:39
    24b2:	8082                	ret
C:\MRS_DATA\workspace\CH583M\obj/../StdPeriphDriver/CH58x_gpio.c:42
    24b4:	400017b7          	lui	a5,0x40001
    24b8:	0b47a703          	lw	a4,180(a5) # 400010b4 <_eusrstack+0x1fff90b4>
    24bc:	8f49                	or	a4,a4,a0
    24be:	0ae7aa23          	sw	a4,180(a5)
C:\MRS_DATA\workspace\CH583M\obj/../StdPeriphDriver/CH58x_gpio.c:43
    24c2:	0b07a703          	lw	a4,176(a5)
    24c6:	fff54513          	not	a0,a0
    24ca:	bf45                	j	247a <GPIOA_ModeCfg+0x2e>
C:\MRS_DATA\workspace\CH583M\obj/../StdPeriphDriver/CH58x_gpio.c:48
    24cc:	400017b7          	lui	a5,0x40001
    24d0:	0b47a683          	lw	a3,180(a5) # 400010b4 <_eusrstack+0x1fff90b4>
    24d4:	fff54713          	not	a4,a0
    24d8:	8f75                	and	a4,a4,a3
C:\MRS_DATA\workspace\CH583M\obj/../StdPeriphDriver/CH58x_gpio.c:53
    24da:	0ae7aa23          	sw	a4,180(a5)
C:\MRS_DATA\workspace\CH583M\obj/../StdPeriphDriver/CH58x_gpio.c:54
    24de:	0a07a703          	lw	a4,160(a5)
    24e2:	8d59                	or	a0,a0,a4
    24e4:	b74d                	j	2486 <GPIOA_ModeCfg+0x3a>
C:\MRS_DATA\workspace\CH583M\obj/../StdPeriphDriver/CH58x_gpio.c:53
    24e6:	400017b7          	lui	a5,0x40001
    24ea:	0b47a703          	lw	a4,180(a5) # 400010b4 <_eusrstack+0x1fff90b4>
    24ee:	8f49                	or	a4,a4,a0
    24f0:	b7ed                	j	24da <GPIOA_ModeCfg+0x8e>

000024f2 <GPIOB_ModeCfg>:
GPIOB_ModeCfg():
C:\MRS_DATA\workspace\CH583M\obj/../StdPeriphDriver/CH58x_gpio.c:74
    24f2:	4791                	li	a5,4
    24f4:	02b7ee63          	bltu	a5,a1,2530 <GPIOB_ModeCfg+0x3e>
    24f8:	00003717          	auipc	a4,0x3
    24fc:	fe870713          	addi	a4,a4,-24 # 54e0 <img_mh_tab+0x19c>
    2500:	058a                	slli	a1,a1,0x2
    2502:	95ba                	add	a1,a1,a4
    2504:	419c                	lw	a5,0(a1)
    2506:	97ba                	add	a5,a5,a4
    2508:	8782                	jr	a5
C:\MRS_DATA\workspace\CH583M\obj/../StdPeriphDriver/CH58x_gpio.c:77
    250a:	400017b7          	lui	a5,0x40001
    250e:	0d47a703          	lw	a4,212(a5) # 400010d4 <_eusrstack+0x1fff90d4>
    2512:	fff54513          	not	a0,a0
    2516:	8f69                	and	a4,a4,a0
    2518:	0ce7aa23          	sw	a4,212(a5)
C:\MRS_DATA\workspace\CH583M\obj/../StdPeriphDriver/CH58x_gpio.c:78
    251c:	0d07a703          	lw	a4,208(a5)
C:\MRS_DATA\workspace\CH583M\obj/../StdPeriphDriver/CH58x_gpio.c:90
    2520:	8f69                	and	a4,a4,a0
    2522:	0ce7a823          	sw	a4,208(a5)
C:\MRS_DATA\workspace\CH583M\obj/../StdPeriphDriver/CH58x_gpio.c:91
    2526:	0c07a703          	lw	a4,192(a5)
    252a:	8d79                	and	a0,a0,a4
C:\MRS_DATA\workspace\CH583M\obj/../StdPeriphDriver/CH58x_gpio.c:101
    252c:	0ca7a023          	sw	a0,192(a5)
C:\MRS_DATA\workspace\CH583M\obj/../StdPeriphDriver/CH58x_gpio.c:107
    2530:	8082                	ret
C:\MRS_DATA\workspace\CH583M\obj/../StdPeriphDriver/CH58x_gpio.c:83
    2532:	400017b7          	lui	a5,0x40001
    2536:	0d47a683          	lw	a3,212(a5) # 400010d4 <_eusrstack+0x1fff90d4>
    253a:	fff54713          	not	a4,a0
    253e:	8ef9                	and	a3,a3,a4
    2540:	0cd7aa23          	sw	a3,212(a5)
C:\MRS_DATA\workspace\CH583M\obj/../StdPeriphDriver/CH58x_gpio.c:84
    2544:	0d07a683          	lw	a3,208(a5)
    2548:	8d55                	or	a0,a0,a3
    254a:	0ca7a823          	sw	a0,208(a5)
C:\MRS_DATA\workspace\CH583M\obj/../StdPeriphDriver/CH58x_gpio.c:85
    254e:	0c07a683          	lw	a3,192(a5)
    2552:	8f75                	and	a4,a4,a3
    2554:	0ce7a023          	sw	a4,192(a5)
C:\MRS_DATA\workspace\CH583M\obj/../StdPeriphDriver/CH58x_gpio.c:86
    2558:	8082                	ret
C:\MRS_DATA\workspace\CH583M\obj/../StdPeriphDriver/CH58x_gpio.c:89
    255a:	400017b7          	lui	a5,0x40001
    255e:	0d47a703          	lw	a4,212(a5) # 400010d4 <_eusrstack+0x1fff90d4>
    2562:	8f49                	or	a4,a4,a0
    2564:	0ce7aa23          	sw	a4,212(a5)
C:\MRS_DATA\workspace\CH583M\obj/../StdPeriphDriver/CH58x_gpio.c:90
    2568:	0d07a703          	lw	a4,208(a5)
    256c:	fff54513          	not	a0,a0
    2570:	bf45                	j	2520 <GPIOB_ModeCfg+0x2e>
C:\MRS_DATA\workspace\CH583M\obj/../StdPeriphDriver/CH58x_gpio.c:95
    2572:	400017b7          	lui	a5,0x40001
    2576:	0d47a683          	lw	a3,212(a5) # 400010d4 <_eusrstack+0x1fff90d4>
    257a:	fff54713          	not	a4,a0
    257e:	8f75                	and	a4,a4,a3
C:\MRS_DATA\workspace\CH583M\obj/../StdPeriphDriver/CH58x_gpio.c:100
    2580:	0ce7aa23          	sw	a4,212(a5)
C:\MRS_DATA\workspace\CH583M\obj/../StdPeriphDriver/CH58x_gpio.c:101
    2584:	0c07a703          	lw	a4,192(a5)
    2588:	8d59                	or	a0,a0,a4
    258a:	b74d                	j	252c <GPIOB_ModeCfg+0x3a>
C:\MRS_DATA\workspace\CH583M\obj/../StdPeriphDriver/CH58x_gpio.c:100
    258c:	400017b7          	lui	a5,0x40001
    2590:	0d47a703          	lw	a4,212(a5) # 400010d4 <_eusrstack+0x1fff90d4>
    2594:	8f49                	or	a4,a4,a0
    2596:	b7ed                	j	2580 <GPIOB_ModeCfg+0x8e>

00002598 <SPI0_DataMode>:
SPI0_DataMode():
C:\MRS_DATA\workspace\CH583M\obj/../StdPeriphDriver/CH58x_spi0.c:66
    2598:	4785                	li	a5,1
    259a:	02f50963          	beq	a0,a5,25cc <SPI0_DataMode+0x34>
    259e:	c901                	beqz	a0,25ae <SPI0_DataMode+0x16>
    25a0:	4789                	li	a5,2
    25a2:	04f50263          	beq	a0,a5,25e6 <SPI0_DataMode+0x4e>
    25a6:	478d                	li	a5,3
    25a8:	04f50663          	beq	a0,a5,25f4 <SPI0_DataMode+0x5c>
    25ac:	8082                	ret
C:\MRS_DATA\workspace\CH583M\obj/../StdPeriphDriver/CH58x_spi0.c:69
    25ae:	400047b7          	lui	a5,0x40004
    25b2:	0007c703          	lbu	a4,0(a5) # 40004000 <_eusrstack+0x1fffc000>
    25b6:	0f777713          	andi	a4,a4,247
C:\MRS_DATA\workspace\CH583M\obj/../StdPeriphDriver/CH58x_spi0.c:77
    25ba:	00e78023          	sb	a4,0(a5)
C:\MRS_DATA\workspace\CH583M\obj/../StdPeriphDriver/CH58x_spi0.c:78
    25be:	0017c703          	lbu	a4,1(a5)
    25c2:	02076713          	ori	a4,a4,32
C:\MRS_DATA\workspace\CH583M\obj/../StdPeriphDriver/CH58x_spi0.c:82
    25c6:	00e780a3          	sb	a4,1(a5)
C:\MRS_DATA\workspace\CH583M\obj/../StdPeriphDriver/CH58x_spi0.c:87
    25ca:	8082                	ret
C:\MRS_DATA\workspace\CH583M\obj/../StdPeriphDriver/CH58x_spi0.c:73
    25cc:	400047b7          	lui	a5,0x40004
    25d0:	0007c703          	lbu	a4,0(a5) # 40004000 <_eusrstack+0x1fffc000>
    25d4:	0f777713          	andi	a4,a4,247
C:\MRS_DATA\workspace\CH583M\obj/../StdPeriphDriver/CH58x_spi0.c:81
    25d8:	00e78023          	sb	a4,0(a5)
C:\MRS_DATA\workspace\CH583M\obj/../StdPeriphDriver/CH58x_spi0.c:82
    25dc:	0017c703          	lbu	a4,1(a5)
    25e0:	0df77713          	andi	a4,a4,223
    25e4:	b7cd                	j	25c6 <SPI0_DataMode+0x2e>
C:\MRS_DATA\workspace\CH583M\obj/../StdPeriphDriver/CH58x_spi0.c:77
    25e6:	400047b7          	lui	a5,0x40004
    25ea:	0007c703          	lbu	a4,0(a5) # 40004000 <_eusrstack+0x1fffc000>
    25ee:	00876713          	ori	a4,a4,8
    25f2:	b7e1                	j	25ba <SPI0_DataMode+0x22>
C:\MRS_DATA\workspace\CH583M\obj/../StdPeriphDriver/CH58x_spi0.c:81
    25f4:	400047b7          	lui	a5,0x40004
    25f8:	0007c703          	lbu	a4,0(a5) # 40004000 <_eusrstack+0x1fffc000>
    25fc:	00876713          	ori	a4,a4,8
    2600:	bfe1                	j	25d8 <SPI0_DataMode+0x40>

00002602 <SPI0_MasterSendByte>:
SPI0_MasterSendByte():
C:\MRS_DATA\workspace\CH583M\obj/../StdPeriphDriver/CH58x_spi0.c:100
    2602:	400047b7          	lui	a5,0x40004
    2606:	0007c703          	lbu	a4,0(a5) # 40004000 <_eusrstack+0x1fffc000>
    260a:	0ef77713          	andi	a4,a4,239
    260e:	00e78023          	sb	a4,0(a5)
C:\MRS_DATA\workspace\CH583M\obj/../StdPeriphDriver/CH58x_spi0.c:101
    2612:	00a78223          	sb	a0,4(a5)
C:\MRS_DATA\workspace\CH583M\obj/../StdPeriphDriver/CH58x_spi0.c:102
    2616:	40004737          	lui	a4,0x40004
C:\MRS_DATA\workspace\CH583M\obj/../StdPeriphDriver/CH58x_spi0.c:102 (discriminator 1)
    261a:	00674783          	lbu	a5,6(a4) # 40004006 <_eusrstack+0x1fffc006>
    261e:	0407f793          	andi	a5,a5,64
    2622:	dfe5                	beqz	a5,261a <SPI0_MasterSendByte+0x18>
C:\MRS_DATA\workspace\CH583M\obj/../StdPeriphDriver/CH58x_spi0.c:103
    2624:	8082                	ret

00002626 <GetSysClock>:
GetSysClock():
C:\MRS_DATA\workspace\CH583M\obj/../StdPeriphDriver/CH58x_sys.c:117
    2626:	400017b7          	lui	a5,0x40001
    262a:	0087d503          	lhu	a0,8(a5) # 40001008 <_eusrstack+0x1fff9008>
    262e:	0542                	slli	a0,a0,0x10
    2630:	8141                	srli	a0,a0,0x10
C:\MRS_DATA\workspace\CH583M\obj/../StdPeriphDriver/CH58x_sys.c:118
    2632:	04057793          	andi	a5,a0,64
    2636:	eb91                	bnez	a5,264a <GetSysClock+0x24>
C:\MRS_DATA\workspace\CH583M\obj/../StdPeriphDriver/CH58x_sys.c:120
    2638:	01f57793          	andi	a5,a0,31
    263c:	01e85537          	lui	a0,0x1e85
C:\MRS_DATA\workspace\CH583M\obj/../StdPeriphDriver/CH58x_sys.c:124
    2640:	80050513          	addi	a0,a0,-2048 # 1e84800 <_data_lma+0x1e7f26c>
    2644:	02f54533          	div	a0,a0,a5
    2648:	8082                	ret
C:\MRS_DATA\workspace\CH583M\obj/../StdPeriphDriver/CH58x_sys.c:122
    264a:	0c057793          	andi	a5,a0,192
    264e:	04000713          	li	a4,64
    2652:	00e79763          	bne	a5,a4,2660 <GetSysClock+0x3a>
C:\MRS_DATA\workspace\CH583M\obj/../StdPeriphDriver/CH58x_sys.c:124
    2656:	01f57793          	andi	a5,a0,31
    265a:	1c9c4537          	lui	a0,0x1c9c4
    265e:	b7cd                	j	2640 <GetSysClock+0x1a>
C:\MRS_DATA\workspace\CH583M\obj/../StdPeriphDriver/CH58x_sys.c:128
    2660:	6521                	lui	a0,0x8
    2662:	d0050513          	addi	a0,a0,-768 # 7d00 <_data_lma+0x276c>
C:\MRS_DATA\workspace\CH583M\obj/../StdPeriphDriver/CH58x_sys.c:130
    2666:	8082                	ret

00002668 <_write>:
_write():
C:\MRS_DATA\workspace\CH583M\obj/../StdPeriphDriver/CH58x_sys.c:381
    2668:	4781                	li	a5,0
C:\MRS_DATA\workspace\CH583M\obj/../StdPeriphDriver/CH58x_sys.c:387
    266a:	40003737          	lui	a4,0x40003
    266e:	46a1                	li	a3,8
C:\MRS_DATA\workspace\CH583M\obj/../StdPeriphDriver/CH58x_sys.c:381 (discriminator 1)
    2670:	00c7c463          	blt	a5,a2,2678 <_write+0x10>
C:\MRS_DATA\workspace\CH583M\obj/../StdPeriphDriver/CH58x_sys.c:398
    2674:	8532                	mv	a0,a2
    2676:	8082                	ret
C:\MRS_DATA\workspace\CH583M\obj/../StdPeriphDriver/CH58x_sys.c:387 (discriminator 1)
    2678:	40b74503          	lbu	a0,1035(a4) # 4000340b <_eusrstack+0x1fffb40b>
    267c:	fea68ee3          	beq	a3,a0,2678 <_write+0x10>
C:\MRS_DATA\workspace\CH583M\obj/../StdPeriphDriver/CH58x_sys.c:388 (discriminator 2)
    2680:	00f58533          	add	a0,a1,a5
    2684:	00054503          	lbu	a0,0(a0)
C:\MRS_DATA\workspace\CH583M\obj/../StdPeriphDriver/CH58x_sys.c:381 (discriminator 2)
    2688:	0785                	addi	a5,a5,1
C:\MRS_DATA\workspace\CH583M\obj/../StdPeriphDriver/CH58x_sys.c:388 (discriminator 2)
    268a:	40a70423          	sb	a0,1032(a4)
    268e:	b7cd                	j	2670 <_write+0x8>

00002690 <TMR1_TimerInit>:
TMR1_TimerInit():
C:\MRS_DATA\workspace\CH583M\obj/../StdPeriphDriver/CH58x_timer1.c:26
    2690:	400027b7          	lui	a5,0x40002
    2694:	40a7a623          	sw	a0,1036(a5) # 4000240c <_eusrstack+0x1fffa40c>
C:\MRS_DATA\workspace\CH583M\obj/../StdPeriphDriver/CH58x_timer1.c:27
    2698:	4709                	li	a4,2
    269a:	40e78023          	sb	a4,1024(a5)
C:\MRS_DATA\workspace\CH583M\obj/../StdPeriphDriver/CH58x_timer1.c:28
    269e:	4711                	li	a4,4
    26a0:	40e78023          	sb	a4,1024(a5)
C:\MRS_DATA\workspace\CH583M\obj/../StdPeriphDriver/CH58x_timer1.c:29
    26a4:	8082                	ret

000026a6 <UART1_BaudRateCfg>:
UART1_BaudRateCfg():
C:\MRS_DATA\workspace\CH583M\obj/../StdPeriphDriver/CH58x_uart1.c:43
    26a6:	1141                	addi	sp,sp,-16
    26a8:	c422                	sw	s0,8(sp)
    26aa:	c606                	sw	ra,12(sp)
    26ac:	842a                	mv	s0,a0
C:\MRS_DATA\workspace\CH583M\obj/../StdPeriphDriver/CH58x_uart1.c:46
    26ae:	3fa5                	jal	2626 <GetSysClock>
    26b0:	4729                	li	a4,10
    26b2:	02e507b3          	mul	a5,a0,a4
C:\MRS_DATA\workspace\CH583M\obj/../StdPeriphDriver/CH58x_uart1.c:49
    26b6:	40b2                	lw	ra,12(sp)
C:\MRS_DATA\workspace\CH583M\obj/../StdPeriphDriver/CH58x_uart1.c:46
    26b8:	838d                	srli	a5,a5,0x3
    26ba:	0287d7b3          	divu	a5,a5,s0
C:\MRS_DATA\workspace\CH583M\obj/../StdPeriphDriver/CH58x_uart1.c:49
    26be:	4422                	lw	s0,8(sp)
C:\MRS_DATA\workspace\CH583M\obj/../StdPeriphDriver/CH58x_uart1.c:47
    26c0:	0795                	addi	a5,a5,5
    26c2:	02e7d7b3          	divu	a5,a5,a4
C:\MRS_DATA\workspace\CH583M\obj/../StdPeriphDriver/CH58x_uart1.c:48
    26c6:	40003737          	lui	a4,0x40003
    26ca:	07c2                	slli	a5,a5,0x10
    26cc:	83c1                	srli	a5,a5,0x10
    26ce:	40f71623          	sh	a5,1036(a4) # 4000340c <_eusrstack+0x1fffb40c>
C:\MRS_DATA\workspace\CH583M\obj/../StdPeriphDriver/CH58x_uart1.c:49
    26d2:	0141                	addi	sp,sp,16
    26d4:	8082                	ret

000026d6 <UART1_DefInit>:
UART1_DefInit():
C:\MRS_DATA\workspace\CH583M\obj/../StdPeriphDriver/CH58x_uart1.c:26
    26d6:	6571                	lui	a0,0x1c
C:\MRS_DATA\workspace\CH583M\obj/../StdPeriphDriver/CH58x_uart1.c:25
    26d8:	1141                	addi	sp,sp,-16
C:\MRS_DATA\workspace\CH583M\obj/../StdPeriphDriver/CH58x_uart1.c:26
    26da:	20050513          	addi	a0,a0,512 # 1c200 <_data_lma+0x16c6c>
C:\MRS_DATA\workspace\CH583M\obj/../StdPeriphDriver/CH58x_uart1.c:25
    26de:	c606                	sw	ra,12(sp)
C:\MRS_DATA\workspace\CH583M\obj/../StdPeriphDriver/CH58x_uart1.c:26
    26e0:	37d9                	jal	26a6 <UART1_BaudRateCfg>
C:\MRS_DATA\workspace\CH583M\obj/../StdPeriphDriver/CH58x_uart1.c:27
    26e2:	400037b7          	lui	a5,0x40003
    26e6:	f8700713          	li	a4,-121
    26ea:	40e78123          	sb	a4,1026(a5) # 40003402 <_eusrstack+0x1fffb402>
C:\MRS_DATA\workspace\CH583M\obj/../StdPeriphDriver/CH58x_uart1.c:28
    26ee:	470d                	li	a4,3
    26f0:	40e781a3          	sb	a4,1027(a5)
C:\MRS_DATA\workspace\CH583M\obj/../StdPeriphDriver/CH58x_uart1.c:29
    26f4:	04000713          	li	a4,64
    26f8:	40e780a3          	sb	a4,1025(a5)
C:\MRS_DATA\workspace\CH583M\obj/../StdPeriphDriver/CH58x_uart1.c:30
    26fc:	4705                	li	a4,1
    26fe:	40e78723          	sb	a4,1038(a5)
C:\MRS_DATA\workspace\CH583M\obj/../StdPeriphDriver/CH58x_uart1.c:31
    2702:	40b2                	lw	ra,12(sp)
    2704:	0141                	addi	sp,sp,16
    2706:	8082                	ret

00002708 <UART1_ByteTrigCfg>:
UART1_ByteTrigCfg():
C:\MRS_DATA\workspace\CH583M\obj/../StdPeriphDriver/CH58x_uart1.c:62
    2708:	40003737          	lui	a4,0x40003
    270c:	40274783          	lbu	a5,1026(a4) # 40003402 <_eusrstack+0x1fffb402>
    2710:	051a                	slli	a0,a0,0x6
    2712:	03f7f793          	andi	a5,a5,63
    2716:	8fc9                	or	a5,a5,a0
    2718:	0ff7f793          	andi	a5,a5,255
    271c:	40f70123          	sb	a5,1026(a4)
C:\MRS_DATA\workspace\CH583M\obj/../StdPeriphDriver/CH58x_uart1.c:63
    2720:	8082                	ret

00002722 <UART1_INTCfg>:
UART1_INTCfg():
C:\MRS_DATA\workspace\CH583M\obj/../StdPeriphDriver/CH58x_uart1.c:83
    2722:	400037b7          	lui	a5,0x40003
    2726:	4017c703          	lbu	a4,1025(a5) # 40003401 <_eusrstack+0x1fffb401>
C:\MRS_DATA\workspace\CH583M\obj/../StdPeriphDriver/CH58x_uart1.c:81
    272a:	c919                	beqz	a0,2740 <UART1_INTCfg+0x1e>
C:\MRS_DATA\workspace\CH583M\obj/../StdPeriphDriver/CH58x_uart1.c:83
    272c:	8dd9                	or	a1,a1,a4
    272e:	40b780a3          	sb	a1,1025(a5)
C:\MRS_DATA\workspace\CH583M\obj/../StdPeriphDriver/CH58x_uart1.c:84
    2732:	4007c703          	lbu	a4,1024(a5)
    2736:	00876713          	ori	a4,a4,8
    273a:	40e78023          	sb	a4,1024(a5)
    273e:	8082                	ret
C:\MRS_DATA\workspace\CH583M\obj/../StdPeriphDriver/CH58x_uart1.c:88
    2740:	fff5c593          	not	a1,a1
    2744:	8df9                	and	a1,a1,a4
    2746:	40b780a3          	sb	a1,1025(a5)
C:\MRS_DATA\workspace\CH583M\obj/../StdPeriphDriver/CH58x_uart1.c:90
    274a:	8082                	ret

0000274c <memcpy>:
memcpy():
    274c:	00a5c7b3          	xor	a5,a1,a0
    2750:	8b8d                	andi	a5,a5,3
    2752:	00c50733          	add	a4,a0,a2
    2756:	e781                	bnez	a5,275e <memcpy+0x12>
    2758:	478d                	li	a5,3
    275a:	00c7ee63          	bltu	a5,a2,2776 <memcpy+0x2a>
    275e:	87aa                	mv	a5,a0
    2760:	0ae57063          	bgeu	a0,a4,2800 <memcpy+0xb4>
    2764:	0005c683          	lbu	a3,0(a1)
    2768:	0785                	addi	a5,a5,1
    276a:	0585                	addi	a1,a1,1
    276c:	fed78fa3          	sb	a3,-1(a5)
    2770:	fee7eae3          	bltu	a5,a4,2764 <memcpy+0x18>
    2774:	8082                	ret
    2776:	00357693          	andi	a3,a0,3
    277a:	87aa                	mv	a5,a0
    277c:	ca91                	beqz	a3,2790 <memcpy+0x44>
    277e:	0005c683          	lbu	a3,0(a1)
    2782:	0785                	addi	a5,a5,1
    2784:	0585                	addi	a1,a1,1
    2786:	fed78fa3          	sb	a3,-1(a5)
    278a:	0037f693          	andi	a3,a5,3
    278e:	b7fd                	j	277c <memcpy+0x30>
    2790:	ffc77693          	andi	a3,a4,-4
    2794:	fe068613          	addi	a2,a3,-32
    2798:	06c7f063          	bgeu	a5,a2,27f8 <memcpy+0xac>
    279c:	0005a383          	lw	t2,0(a1)
    27a0:	0045a283          	lw	t0,4(a1)
    27a4:	0085af83          	lw	t6,8(a1)
    27a8:	00c5af03          	lw	t5,12(a1)
    27ac:	0105ae83          	lw	t4,16(a1)
    27b0:	0145ae03          	lw	t3,20(a1)
    27b4:	0185a303          	lw	t1,24(a1)
    27b8:	01c5a883          	lw	a7,28(a1)
    27bc:	02458593          	addi	a1,a1,36
    27c0:	0077a023          	sw	t2,0(a5)
    27c4:	ffc5a803          	lw	a6,-4(a1)
    27c8:	0057a223          	sw	t0,4(a5)
    27cc:	01f7a423          	sw	t6,8(a5)
    27d0:	01e7a623          	sw	t5,12(a5)
    27d4:	01d7a823          	sw	t4,16(a5)
    27d8:	01c7aa23          	sw	t3,20(a5)
    27dc:	0067ac23          	sw	t1,24(a5)
    27e0:	0117ae23          	sw	a7,28(a5)
    27e4:	02478793          	addi	a5,a5,36
    27e8:	ff07ae23          	sw	a6,-4(a5)
    27ec:	b775                	j	2798 <memcpy+0x4c>
    27ee:	4190                	lw	a2,0(a1)
    27f0:	0791                	addi	a5,a5,4
    27f2:	0591                	addi	a1,a1,4
    27f4:	fec7ae23          	sw	a2,-4(a5)
    27f8:	fed7ebe3          	bltu	a5,a3,27ee <memcpy+0xa2>
    27fc:	f6e7e4e3          	bltu	a5,a4,2764 <memcpy+0x18>
    2800:	8082                	ret

00002802 <iprintf>:
printf():
    2802:	7139                	addi	sp,sp,-64
    2804:	da3e                	sw	a5,52(sp)
    2806:	d22e                	sw	a1,36(sp)
    2808:	d432                	sw	a2,40(sp)
    280a:	d636                	sw	a3,44(sp)
    280c:	d83a                	sw	a4,48(sp)
    280e:	dc42                	sw	a6,56(sp)
    2810:	de46                	sw	a7,60(sp)
    2812:	80818793          	addi	a5,gp,-2040 # 20000ce8 <_impure_ptr>
    2816:	cc22                	sw	s0,24(sp)
    2818:	4380                	lw	s0,0(a5)
    281a:	ca26                	sw	s1,20(sp)
    281c:	ce06                	sw	ra,28(sp)
    281e:	84aa                	mv	s1,a0
    2820:	c409                	beqz	s0,282a <iprintf+0x28>
    2822:	4c1c                	lw	a5,24(s0)
    2824:	e399                	bnez	a5,282a <iprintf+0x28>
    2826:	8522                	mv	a0,s0
    2828:	23ad                	jal	2d92 <__sinit>
    282a:	440c                	lw	a1,8(s0)
    282c:	1054                	addi	a3,sp,36
    282e:	8626                	mv	a2,s1
    2830:	8522                	mv	a0,s0
    2832:	c636                	sw	a3,12(sp)
    2834:	521000ef          	jal	ra,3554 <_vfiprintf_r>
    2838:	40f2                	lw	ra,28(sp)
    283a:	4462                	lw	s0,24(sp)
    283c:	44d2                	lw	s1,20(sp)
    283e:	6121                	addi	sp,sp,64
    2840:	8082                	ret

00002842 <_puts_r>:
_puts_r():
    2842:	1101                	addi	sp,sp,-32
    2844:	ca26                	sw	s1,20(sp)
    2846:	c84a                	sw	s2,16(sp)
    2848:	ce06                	sw	ra,28(sp)
    284a:	cc22                	sw	s0,24(sp)
    284c:	c64e                	sw	s3,12(sp)
    284e:	c452                	sw	s4,8(sp)
    2850:	84aa                	mv	s1,a0
    2852:	892e                	mv	s2,a1
    2854:	c501                	beqz	a0,285c <_puts_r+0x1a>
    2856:	4d1c                	lw	a5,24(a0)
    2858:	e391                	bnez	a5,285c <_puts_r+0x1a>
    285a:	2b25                	jal	2d92 <__sinit>
    285c:	4c9c                	lw	a5,24(s1)
    285e:	4480                	lw	s0,8(s1)
    2860:	e399                	bnez	a5,2866 <_puts_r+0x24>
    2862:	8526                	mv	a0,s1
    2864:	233d                	jal	2d92 <__sinit>
    2866:	00003797          	auipc	a5,0x3
    286a:	cae78793          	addi	a5,a5,-850 # 5514 <__sf_fake_stdin>
    286e:	02f41c63          	bne	s0,a5,28a6 <_puts_r+0x64>
    2872:	40c0                	lw	s0,4(s1)
    2874:	00c45783          	lhu	a5,12(s0)
    2878:	8ba1                	andi	a5,a5,8
    287a:	c7b1                	beqz	a5,28c6 <_puts_r+0x84>
    287c:	481c                	lw	a5,16(s0)
    287e:	c7a1                	beqz	a5,28c6 <_puts_r+0x84>
    2880:	59fd                	li	s3,-1
    2882:	4a29                	li	s4,10
    2884:	441c                	lw	a5,8(s0)
    2886:	00094583          	lbu	a1,0(s2) # 8000 <_data_lma+0x2a6c>
    288a:	17fd                	addi	a5,a5,-1
    288c:	e9b1                	bnez	a1,28e0 <_puts_r+0x9e>
    288e:	c41c                	sw	a5,8(s0)
    2890:	0607de63          	bgez	a5,290c <_puts_r+0xca>
    2894:	8622                	mv	a2,s0
    2896:	45a9                	li	a1,10
    2898:	8526                	mv	a0,s1
    289a:	28c9                	jal	296c <__swbuf_r>
    289c:	57fd                	li	a5,-1
    289e:	02f50863          	beq	a0,a5,28ce <_puts_r+0x8c>
    28a2:	4529                	li	a0,10
    28a4:	a035                	j	28d0 <_puts_r+0x8e>
    28a6:	00003797          	auipc	a5,0x3
    28aa:	c8e78793          	addi	a5,a5,-882 # 5534 <__sf_fake_stdout>
    28ae:	00f41463          	bne	s0,a5,28b6 <_puts_r+0x74>
    28b2:	4480                	lw	s0,8(s1)
    28b4:	b7c1                	j	2874 <_puts_r+0x32>
    28b6:	00003797          	auipc	a5,0x3
    28ba:	c3e78793          	addi	a5,a5,-962 # 54f4 <__sf_fake_stderr>
    28be:	faf41be3          	bne	s0,a5,2874 <_puts_r+0x32>
    28c2:	44c0                	lw	s0,12(s1)
    28c4:	bf45                	j	2874 <_puts_r+0x32>
    28c6:	85a2                	mv	a1,s0
    28c8:	8526                	mv	a0,s1
    28ca:	228d                	jal	2a2c <__swsetup_r>
    28cc:	d955                	beqz	a0,2880 <_puts_r+0x3e>
    28ce:	557d                	li	a0,-1
    28d0:	40f2                	lw	ra,28(sp)
    28d2:	4462                	lw	s0,24(sp)
    28d4:	44d2                	lw	s1,20(sp)
    28d6:	4942                	lw	s2,16(sp)
    28d8:	49b2                	lw	s3,12(sp)
    28da:	4a22                	lw	s4,8(sp)
    28dc:	6105                	addi	sp,sp,32
    28de:	8082                	ret
    28e0:	c41c                	sw	a5,8(s0)
    28e2:	0905                	addi	s2,s2,1
    28e4:	0007d763          	bgez	a5,28f2 <_puts_r+0xb0>
    28e8:	4c18                	lw	a4,24(s0)
    28ea:	00e7cb63          	blt	a5,a4,2900 <_puts_r+0xbe>
    28ee:	01458963          	beq	a1,s4,2900 <_puts_r+0xbe>
    28f2:	401c                	lw	a5,0(s0)
    28f4:	00178713          	addi	a4,a5,1
    28f8:	c018                	sw	a4,0(s0)
    28fa:	00b78023          	sb	a1,0(a5)
    28fe:	b759                	j	2884 <_puts_r+0x42>
    2900:	8622                	mv	a2,s0
    2902:	8526                	mv	a0,s1
    2904:	20a5                	jal	296c <__swbuf_r>
    2906:	f7351fe3          	bne	a0,s3,2884 <_puts_r+0x42>
    290a:	b7d1                	j	28ce <_puts_r+0x8c>
    290c:	401c                	lw	a5,0(s0)
    290e:	00178713          	addi	a4,a5,1
    2912:	c018                	sw	a4,0(s0)
    2914:	4729                	li	a4,10
    2916:	00e78023          	sb	a4,0(a5)
    291a:	b761                	j	28a2 <_puts_r+0x60>

0000291c <puts>:
puts():
    291c:	80818793          	addi	a5,gp,-2040 # 20000ce8 <_impure_ptr>
    2920:	85aa                	mv	a1,a0
    2922:	4388                	lw	a0,0(a5)
    2924:	bf39                	j	2842 <_puts_r>

00002926 <siprintf>:
sprintf():
    2926:	7135                	addi	sp,sp,-160
    2928:	cb3e                	sw	a5,148(sp)
    292a:	800007b7          	lui	a5,0x80000
    292e:	fff7c793          	not	a5,a5
    2932:	ce3e                	sw	a5,28(sp)
    2934:	c83e                	sw	a5,16(sp)
    2936:	77c1                	lui	a5,0xffff0
    2938:	20878793          	addi	a5,a5,520 # ffff0208 <_eusrstack+0xdffe8208>
    293c:	c532                	sw	a2,136(sp)
    293e:	c736                	sw	a3,140(sp)
    2940:	c93a                	sw	a4,144(sp)
    2942:	cd42                	sw	a6,152(sp)
    2944:	cf46                	sw	a7,156(sp)
    2946:	ca3e                	sw	a5,20(sp)
    2948:	80818793          	addi	a5,gp,-2040 # 20000ce8 <_impure_ptr>
    294c:	c42a                	sw	a0,8(sp)
    294e:	cc2a                	sw	a0,24(sp)
    2950:	4388                	lw	a0,0(a5)
    2952:	0134                	addi	a3,sp,136
    2954:	862e                	mv	a2,a1
    2956:	002c                	addi	a1,sp,8
    2958:	de86                	sw	ra,124(sp)
    295a:	c236                	sw	a3,4(sp)
    295c:	111000ef          	jal	ra,326c <_svfiprintf_r>
    2960:	47a2                	lw	a5,8(sp)
    2962:	00078023          	sb	zero,0(a5)
    2966:	50f6                	lw	ra,124(sp)
    2968:	610d                	addi	sp,sp,160
    296a:	8082                	ret

0000296c <__swbuf_r>:
__swbuf_r():
    296c:	1101                	addi	sp,sp,-32
    296e:	cc22                	sw	s0,24(sp)
    2970:	ca26                	sw	s1,20(sp)
    2972:	c84a                	sw	s2,16(sp)
    2974:	ce06                	sw	ra,28(sp)
    2976:	c64e                	sw	s3,12(sp)
    2978:	84aa                	mv	s1,a0
    297a:	892e                	mv	s2,a1
    297c:	8432                	mv	s0,a2
    297e:	c501                	beqz	a0,2986 <__swbuf_r+0x1a>
    2980:	4d1c                	lw	a5,24(a0)
    2982:	e391                	bnez	a5,2986 <__swbuf_r+0x1a>
    2984:	2139                	jal	2d92 <__sinit>
    2986:	00003797          	auipc	a5,0x3
    298a:	b8e78793          	addi	a5,a5,-1138 # 5514 <__sf_fake_stdin>
    298e:	06f41963          	bne	s0,a5,2a00 <__swbuf_r+0x94>
    2992:	40c0                	lw	s0,4(s1)
    2994:	4c1c                	lw	a5,24(s0)
    2996:	c41c                	sw	a5,8(s0)
    2998:	00c45783          	lhu	a5,12(s0)
    299c:	8ba1                	andi	a5,a5,8
    299e:	c3c9                	beqz	a5,2a20 <__swbuf_r+0xb4>
    29a0:	481c                	lw	a5,16(s0)
    29a2:	cfbd                	beqz	a5,2a20 <__swbuf_r+0xb4>
    29a4:	481c                	lw	a5,16(s0)
    29a6:	4008                	lw	a0,0(s0)
    29a8:	0ff97993          	andi	s3,s2,255
    29ac:	0ff97913          	andi	s2,s2,255
    29b0:	8d1d                	sub	a0,a0,a5
    29b2:	485c                	lw	a5,20(s0)
    29b4:	00f54663          	blt	a0,a5,29c0 <__swbuf_r+0x54>
    29b8:	85a2                	mv	a1,s0
    29ba:	8526                	mv	a0,s1
    29bc:	2c65                	jal	2c74 <_fflush_r>
    29be:	e52d                	bnez	a0,2a28 <__swbuf_r+0xbc>
    29c0:	441c                	lw	a5,8(s0)
    29c2:	0505                	addi	a0,a0,1
    29c4:	17fd                	addi	a5,a5,-1
    29c6:	c41c                	sw	a5,8(s0)
    29c8:	401c                	lw	a5,0(s0)
    29ca:	00178713          	addi	a4,a5,1
    29ce:	c018                	sw	a4,0(s0)
    29d0:	01378023          	sb	s3,0(a5)
    29d4:	485c                	lw	a5,20(s0)
    29d6:	00a78963          	beq	a5,a0,29e8 <__swbuf_r+0x7c>
    29da:	00c45783          	lhu	a5,12(s0)
    29de:	8b85                	andi	a5,a5,1
    29e0:	cb81                	beqz	a5,29f0 <__swbuf_r+0x84>
    29e2:	47a9                	li	a5,10
    29e4:	00f91663          	bne	s2,a5,29f0 <__swbuf_r+0x84>
    29e8:	85a2                	mv	a1,s0
    29ea:	8526                	mv	a0,s1
    29ec:	2461                	jal	2c74 <_fflush_r>
    29ee:	ed0d                	bnez	a0,2a28 <__swbuf_r+0xbc>
    29f0:	40f2                	lw	ra,28(sp)
    29f2:	4462                	lw	s0,24(sp)
    29f4:	854a                	mv	a0,s2
    29f6:	44d2                	lw	s1,20(sp)
    29f8:	4942                	lw	s2,16(sp)
    29fa:	49b2                	lw	s3,12(sp)
    29fc:	6105                	addi	sp,sp,32
    29fe:	8082                	ret
    2a00:	00003797          	auipc	a5,0x3
    2a04:	b3478793          	addi	a5,a5,-1228 # 5534 <__sf_fake_stdout>
    2a08:	00f41463          	bne	s0,a5,2a10 <__swbuf_r+0xa4>
    2a0c:	4480                	lw	s0,8(s1)
    2a0e:	b759                	j	2994 <__swbuf_r+0x28>
    2a10:	00003797          	auipc	a5,0x3
    2a14:	ae478793          	addi	a5,a5,-1308 # 54f4 <__sf_fake_stderr>
    2a18:	f6f41ee3          	bne	s0,a5,2994 <__swbuf_r+0x28>
    2a1c:	44c0                	lw	s0,12(s1)
    2a1e:	bf9d                	j	2994 <__swbuf_r+0x28>
    2a20:	85a2                	mv	a1,s0
    2a22:	8526                	mv	a0,s1
    2a24:	2021                	jal	2a2c <__swsetup_r>
    2a26:	dd3d                	beqz	a0,29a4 <__swbuf_r+0x38>
    2a28:	597d                	li	s2,-1
    2a2a:	b7d9                	j	29f0 <__swbuf_r+0x84>

00002a2c <__swsetup_r>:
__swsetup_r():
    2a2c:	1141                	addi	sp,sp,-16
    2a2e:	80818793          	addi	a5,gp,-2040 # 20000ce8 <_impure_ptr>
    2a32:	c226                	sw	s1,4(sp)
    2a34:	4384                	lw	s1,0(a5)
    2a36:	c422                	sw	s0,8(sp)
    2a38:	c04a                	sw	s2,0(sp)
    2a3a:	c606                	sw	ra,12(sp)
    2a3c:	892a                	mv	s2,a0
    2a3e:	842e                	mv	s0,a1
    2a40:	c489                	beqz	s1,2a4a <__swsetup_r+0x1e>
    2a42:	4c9c                	lw	a5,24(s1)
    2a44:	e399                	bnez	a5,2a4a <__swsetup_r+0x1e>
    2a46:	8526                	mv	a0,s1
    2a48:	26a9                	jal	2d92 <__sinit>
    2a4a:	00003797          	auipc	a5,0x3
    2a4e:	aca78793          	addi	a5,a5,-1334 # 5514 <__sf_fake_stdin>
    2a52:	02f41c63          	bne	s0,a5,2a8a <__swsetup_r+0x5e>
    2a56:	40c0                	lw	s0,4(s1)
    2a58:	00c41703          	lh	a4,12(s0)
    2a5c:	01071793          	slli	a5,a4,0x10
    2a60:	83c1                	srli	a5,a5,0x10
    2a62:	0087f693          	andi	a3,a5,8
    2a66:	eeb5                	bnez	a3,2ae2 <__swsetup_r+0xb6>
    2a68:	0107f693          	andi	a3,a5,16
    2a6c:	ee9d                	bnez	a3,2aaa <__swsetup_r+0x7e>
    2a6e:	47a5                	li	a5,9
    2a70:	00f92023          	sw	a5,0(s2)
    2a74:	04076713          	ori	a4,a4,64
    2a78:	00e41623          	sh	a4,12(s0)
    2a7c:	557d                	li	a0,-1
    2a7e:	40b2                	lw	ra,12(sp)
    2a80:	4422                	lw	s0,8(sp)
    2a82:	4492                	lw	s1,4(sp)
    2a84:	4902                	lw	s2,0(sp)
    2a86:	0141                	addi	sp,sp,16
    2a88:	8082                	ret
    2a8a:	00003797          	auipc	a5,0x3
    2a8e:	aaa78793          	addi	a5,a5,-1366 # 5534 <__sf_fake_stdout>
    2a92:	00f41463          	bne	s0,a5,2a9a <__swsetup_r+0x6e>
    2a96:	4480                	lw	s0,8(s1)
    2a98:	b7c1                	j	2a58 <__swsetup_r+0x2c>
    2a9a:	00003797          	auipc	a5,0x3
    2a9e:	a5a78793          	addi	a5,a5,-1446 # 54f4 <__sf_fake_stderr>
    2aa2:	faf41be3          	bne	s0,a5,2a58 <__swsetup_r+0x2c>
    2aa6:	44c0                	lw	s0,12(s1)
    2aa8:	bf45                	j	2a58 <__swsetup_r+0x2c>
    2aaa:	8b91                	andi	a5,a5,4
    2aac:	c78d                	beqz	a5,2ad6 <__swsetup_r+0xaa>
    2aae:	584c                	lw	a1,52(s0)
    2ab0:	c989                	beqz	a1,2ac2 <__swsetup_r+0x96>
    2ab2:	04440793          	addi	a5,s0,68
    2ab6:	00f58463          	beq	a1,a5,2abe <__swsetup_r+0x92>
    2aba:	854a                	mv	a0,s2
    2abc:	2391                	jal	3000 <_free_r>
    2abe:	02042a23          	sw	zero,52(s0)
    2ac2:	00c45783          	lhu	a5,12(s0)
    2ac6:	00042223          	sw	zero,4(s0)
    2aca:	fdb7f793          	andi	a5,a5,-37
    2ace:	00f41623          	sh	a5,12(s0)
    2ad2:	481c                	lw	a5,16(s0)
    2ad4:	c01c                	sw	a5,0(s0)
    2ad6:	00c45783          	lhu	a5,12(s0)
    2ada:	0087e793          	ori	a5,a5,8
    2ade:	00f41623          	sh	a5,12(s0)
    2ae2:	481c                	lw	a5,16(s0)
    2ae4:	ef81                	bnez	a5,2afc <__swsetup_r+0xd0>
    2ae6:	00c45783          	lhu	a5,12(s0)
    2aea:	20000713          	li	a4,512
    2aee:	2807f793          	andi	a5,a5,640
    2af2:	00e78563          	beq	a5,a4,2afc <__swsetup_r+0xd0>
    2af6:	85a2                	mv	a1,s0
    2af8:	854a                	mv	a0,s2
    2afa:	21a5                	jal	2f62 <__smakebuf_r>
    2afc:	00c45783          	lhu	a5,12(s0)
    2b00:	0017f713          	andi	a4,a5,1
    2b04:	c705                	beqz	a4,2b2c <__swsetup_r+0x100>
    2b06:	485c                	lw	a5,20(s0)
    2b08:	00042423          	sw	zero,8(s0)
    2b0c:	40f007b3          	neg	a5,a5
    2b10:	cc1c                	sw	a5,24(s0)
    2b12:	481c                	lw	a5,16(s0)
    2b14:	4501                	li	a0,0
    2b16:	f7a5                	bnez	a5,2a7e <__swsetup_r+0x52>
    2b18:	00c41783          	lh	a5,12(s0)
    2b1c:	0807f713          	andi	a4,a5,128
    2b20:	df39                	beqz	a4,2a7e <__swsetup_r+0x52>
    2b22:	0407e793          	ori	a5,a5,64
    2b26:	00f41623          	sh	a5,12(s0)
    2b2a:	bf89                	j	2a7c <__swsetup_r+0x50>
    2b2c:	8b89                	andi	a5,a5,2
    2b2e:	4701                	li	a4,0
    2b30:	e391                	bnez	a5,2b34 <__swsetup_r+0x108>
    2b32:	4858                	lw	a4,20(s0)
    2b34:	c418                	sw	a4,8(s0)
    2b36:	bff1                	j	2b12 <__swsetup_r+0xe6>

00002b38 <__sflush_r>:
__sflush_r():
    2b38:	00c5d783          	lhu	a5,12(a1)
    2b3c:	1101                	addi	sp,sp,-32
    2b3e:	cc22                	sw	s0,24(sp)
    2b40:	ca26                	sw	s1,20(sp)
    2b42:	ce06                	sw	ra,28(sp)
    2b44:	c84a                	sw	s2,16(sp)
    2b46:	c64e                	sw	s3,12(sp)
    2b48:	0087f713          	andi	a4,a5,8
    2b4c:	84aa                	mv	s1,a0
    2b4e:	842e                	mv	s0,a1
    2b50:	ef71                	bnez	a4,2c2c <__sflush_r+0xf4>
    2b52:	41d8                	lw	a4,4(a1)
    2b54:	00e04d63          	bgtz	a4,2b6e <__sflush_r+0x36>
    2b58:	41b8                	lw	a4,64(a1)
    2b5a:	00e04a63          	bgtz	a4,2b6e <__sflush_r+0x36>
    2b5e:	4501                	li	a0,0
    2b60:	40f2                	lw	ra,28(sp)
    2b62:	4462                	lw	s0,24(sp)
    2b64:	44d2                	lw	s1,20(sp)
    2b66:	4942                	lw	s2,16(sp)
    2b68:	49b2                	lw	s3,12(sp)
    2b6a:	6105                	addi	sp,sp,32
    2b6c:	8082                	ret
    2b6e:	5458                	lw	a4,44(s0)
    2b70:	d77d                	beqz	a4,2b5e <__sflush_r+0x26>
    2b72:	0004a903          	lw	s2,0(s1) # 10000 <_data_lma+0xaa6c>
    2b76:	01379693          	slli	a3,a5,0x13
    2b7a:	0004a023          	sw	zero,0(s1)
    2b7e:	0606dd63          	bgez	a3,2bf8 <__sflush_r+0xc0>
    2b82:	4870                	lw	a2,84(s0)
    2b84:	00c45783          	lhu	a5,12(s0)
    2b88:	8b91                	andi	a5,a5,4
    2b8a:	c799                	beqz	a5,2b98 <__sflush_r+0x60>
    2b8c:	405c                	lw	a5,4(s0)
    2b8e:	8e1d                	sub	a2,a2,a5
    2b90:	585c                	lw	a5,52(s0)
    2b92:	c399                	beqz	a5,2b98 <__sflush_r+0x60>
    2b94:	403c                	lw	a5,64(s0)
    2b96:	8e1d                	sub	a2,a2,a5
    2b98:	545c                	lw	a5,44(s0)
    2b9a:	500c                	lw	a1,32(s0)
    2b9c:	4681                	li	a3,0
    2b9e:	8526                	mv	a0,s1
    2ba0:	9782                	jalr	a5
    2ba2:	57fd                	li	a5,-1
    2ba4:	00c45703          	lhu	a4,12(s0)
    2ba8:	00f51d63          	bne	a0,a5,2bc2 <__sflush_r+0x8a>
    2bac:	4094                	lw	a3,0(s1)
    2bae:	47f5                	li	a5,29
    2bb0:	06d7e863          	bltu	a5,a3,2c20 <__sflush_r+0xe8>
    2bb4:	204007b7          	lui	a5,0x20400
    2bb8:	0785                	addi	a5,a5,1
    2bba:	00d7d7b3          	srl	a5,a5,a3
    2bbe:	8b85                	andi	a5,a5,1
    2bc0:	c3a5                	beqz	a5,2c20 <__sflush_r+0xe8>
    2bc2:	481c                	lw	a5,16(s0)
    2bc4:	00042223          	sw	zero,4(s0)
    2bc8:	c01c                	sw	a5,0(s0)
    2bca:	01371793          	slli	a5,a4,0x13
    2bce:	0007d863          	bgez	a5,2bde <__sflush_r+0xa6>
    2bd2:	57fd                	li	a5,-1
    2bd4:	00f51463          	bne	a0,a5,2bdc <__sflush_r+0xa4>
    2bd8:	409c                	lw	a5,0(s1)
    2bda:	e391                	bnez	a5,2bde <__sflush_r+0xa6>
    2bdc:	c868                	sw	a0,84(s0)
    2bde:	584c                	lw	a1,52(s0)
    2be0:	0124a023          	sw	s2,0(s1)
    2be4:	ddad                	beqz	a1,2b5e <__sflush_r+0x26>
    2be6:	04440793          	addi	a5,s0,68
    2bea:	00f58463          	beq	a1,a5,2bf2 <__sflush_r+0xba>
    2bee:	8526                	mv	a0,s1
    2bf0:	2901                	jal	3000 <_free_r>
    2bf2:	02042a23          	sw	zero,52(s0)
    2bf6:	b7a5                	j	2b5e <__sflush_r+0x26>
    2bf8:	500c                	lw	a1,32(s0)
    2bfa:	4601                	li	a2,0
    2bfc:	4685                	li	a3,1
    2bfe:	8526                	mv	a0,s1
    2c00:	9702                	jalr	a4
    2c02:	57fd                	li	a5,-1
    2c04:	862a                	mv	a2,a0
    2c06:	f6f51fe3          	bne	a0,a5,2b84 <__sflush_r+0x4c>
    2c0a:	409c                	lw	a5,0(s1)
    2c0c:	dfa5                	beqz	a5,2b84 <__sflush_r+0x4c>
    2c0e:	4775                	li	a4,29
    2c10:	00e78563          	beq	a5,a4,2c1a <__sflush_r+0xe2>
    2c14:	4759                	li	a4,22
    2c16:	04e79463          	bne	a5,a4,2c5e <__sflush_r+0x126>
    2c1a:	0124a023          	sw	s2,0(s1)
    2c1e:	b781                	j	2b5e <__sflush_r+0x26>
    2c20:	04076713          	ori	a4,a4,64
    2c24:	00e41623          	sh	a4,12(s0)
    2c28:	557d                	li	a0,-1
    2c2a:	bf1d                	j	2b60 <__sflush_r+0x28>
    2c2c:	0105a983          	lw	s3,16(a1)
    2c30:	f20987e3          	beqz	s3,2b5e <__sflush_r+0x26>
    2c34:	0005a903          	lw	s2,0(a1)
    2c38:	8b8d                	andi	a5,a5,3
    2c3a:	0135a023          	sw	s3,0(a1)
    2c3e:	41390933          	sub	s2,s2,s3
    2c42:	4701                	li	a4,0
    2c44:	e391                	bnez	a5,2c48 <__sflush_r+0x110>
    2c46:	49d8                	lw	a4,20(a1)
    2c48:	c418                	sw	a4,8(s0)
    2c4a:	f1205ae3          	blez	s2,2b5e <__sflush_r+0x26>
    2c4e:	541c                	lw	a5,40(s0)
    2c50:	500c                	lw	a1,32(s0)
    2c52:	86ca                	mv	a3,s2
    2c54:	864e                	mv	a2,s3
    2c56:	8526                	mv	a0,s1
    2c58:	9782                	jalr	a5
    2c5a:	00a04963          	bgtz	a0,2c6c <__sflush_r+0x134>
    2c5e:	00c45783          	lhu	a5,12(s0)
    2c62:	0407e793          	ori	a5,a5,64
    2c66:	00f41623          	sh	a5,12(s0)
    2c6a:	bf7d                	j	2c28 <__sflush_r+0xf0>
    2c6c:	99aa                	add	s3,s3,a0
    2c6e:	40a90933          	sub	s2,s2,a0
    2c72:	bfe1                	j	2c4a <__sflush_r+0x112>

00002c74 <_fflush_r>:
_fflush_r():
    2c74:	499c                	lw	a5,16(a1)
    2c76:	cfb9                	beqz	a5,2cd4 <_fflush_r+0x60>
    2c78:	1101                	addi	sp,sp,-32
    2c7a:	cc22                	sw	s0,24(sp)
    2c7c:	ce06                	sw	ra,28(sp)
    2c7e:	842a                	mv	s0,a0
    2c80:	c511                	beqz	a0,2c8c <_fflush_r+0x18>
    2c82:	4d1c                	lw	a5,24(a0)
    2c84:	e781                	bnez	a5,2c8c <_fflush_r+0x18>
    2c86:	c62e                	sw	a1,12(sp)
    2c88:	2229                	jal	2d92 <__sinit>
    2c8a:	45b2                	lw	a1,12(sp)
    2c8c:	00003797          	auipc	a5,0x3
    2c90:	88878793          	addi	a5,a5,-1912 # 5514 <__sf_fake_stdin>
    2c94:	00f59b63          	bne	a1,a5,2caa <_fflush_r+0x36>
    2c98:	404c                	lw	a1,4(s0)
    2c9a:	00c59783          	lh	a5,12(a1)
    2c9e:	c795                	beqz	a5,2cca <_fflush_r+0x56>
    2ca0:	8522                	mv	a0,s0
    2ca2:	4462                	lw	s0,24(sp)
    2ca4:	40f2                	lw	ra,28(sp)
    2ca6:	6105                	addi	sp,sp,32
    2ca8:	bd41                	j	2b38 <__sflush_r>
    2caa:	00003797          	auipc	a5,0x3
    2cae:	88a78793          	addi	a5,a5,-1910 # 5534 <__sf_fake_stdout>
    2cb2:	00f59463          	bne	a1,a5,2cba <_fflush_r+0x46>
    2cb6:	440c                	lw	a1,8(s0)
    2cb8:	b7cd                	j	2c9a <_fflush_r+0x26>
    2cba:	00003797          	auipc	a5,0x3
    2cbe:	83a78793          	addi	a5,a5,-1990 # 54f4 <__sf_fake_stderr>
    2cc2:	fcf59ce3          	bne	a1,a5,2c9a <_fflush_r+0x26>
    2cc6:	444c                	lw	a1,12(s0)
    2cc8:	bfc9                	j	2c9a <_fflush_r+0x26>
    2cca:	40f2                	lw	ra,28(sp)
    2ccc:	4462                	lw	s0,24(sp)
    2cce:	4501                	li	a0,0
    2cd0:	6105                	addi	sp,sp,32
    2cd2:	8082                	ret
    2cd4:	4501                	li	a0,0
    2cd6:	8082                	ret

00002cd8 <std>:
std():
    2cd8:	1141                	addi	sp,sp,-16
    2cda:	c422                	sw	s0,8(sp)
    2cdc:	c606                	sw	ra,12(sp)
    2cde:	842a                	mv	s0,a0
    2ce0:	00b51623          	sh	a1,12(a0)
    2ce4:	00c51723          	sh	a2,14(a0)
    2ce8:	00052023          	sw	zero,0(a0)
    2cec:	00052223          	sw	zero,4(a0)
    2cf0:	00052423          	sw	zero,8(a0)
    2cf4:	06052223          	sw	zero,100(a0)
    2cf8:	00052823          	sw	zero,16(a0)
    2cfc:	00052a23          	sw	zero,20(a0)
    2d00:	00052c23          	sw	zero,24(a0)
    2d04:	4621                	li	a2,8
    2d06:	4581                	li	a1,0
    2d08:	05c50513          	addi	a0,a0,92
    2d0c:	fd3fd0ef          	jal	ra,cde <memset>
    2d10:	00001797          	auipc	a5,0x1
    2d14:	ec278793          	addi	a5,a5,-318 # 3bd2 <__sread>
    2d18:	d05c                	sw	a5,36(s0)
    2d1a:	00001797          	auipc	a5,0x1
    2d1e:	ee878793          	addi	a5,a5,-280 # 3c02 <__swrite>
    2d22:	d41c                	sw	a5,40(s0)
    2d24:	00001797          	auipc	a5,0x1
    2d28:	f2c78793          	addi	a5,a5,-212 # 3c50 <__sseek>
    2d2c:	d45c                	sw	a5,44(s0)
    2d2e:	00001797          	auipc	a5,0x1
    2d32:	f5878793          	addi	a5,a5,-168 # 3c86 <__sclose>
    2d36:	d000                	sw	s0,32(s0)
    2d38:	d81c                	sw	a5,48(s0)
    2d3a:	40b2                	lw	ra,12(sp)
    2d3c:	4422                	lw	s0,8(sp)
    2d3e:	0141                	addi	sp,sp,16
    2d40:	8082                	ret

00002d42 <_cleanup_r>:
_cleanup_r():
    2d42:	00000597          	auipc	a1,0x0
    2d46:	f3258593          	addi	a1,a1,-206 # 2c74 <_fflush_r>
    2d4a:	aa89                	j	2e9c <_fwalk_reent>

00002d4c <__sfmoreglue>:
__sfmoreglue():
    2d4c:	1141                	addi	sp,sp,-16
    2d4e:	c226                	sw	s1,4(sp)
    2d50:	06800613          	li	a2,104
    2d54:	fff58493          	addi	s1,a1,-1
    2d58:	02c484b3          	mul	s1,s1,a2
    2d5c:	c04a                	sw	s2,0(sp)
    2d5e:	892e                	mv	s2,a1
    2d60:	c422                	sw	s0,8(sp)
    2d62:	c606                	sw	ra,12(sp)
    2d64:	07448593          	addi	a1,s1,116
    2d68:	2681                	jal	30a8 <_malloc_r>
    2d6a:	842a                	mv	s0,a0
    2d6c:	cd01                	beqz	a0,2d84 <__sfmoreglue+0x38>
    2d6e:	00052023          	sw	zero,0(a0)
    2d72:	01252223          	sw	s2,4(a0)
    2d76:	0531                	addi	a0,a0,12
    2d78:	c408                	sw	a0,8(s0)
    2d7a:	06848613          	addi	a2,s1,104
    2d7e:	4581                	li	a1,0
    2d80:	f5ffd0ef          	jal	ra,cde <memset>
    2d84:	8522                	mv	a0,s0
    2d86:	40b2                	lw	ra,12(sp)
    2d88:	4422                	lw	s0,8(sp)
    2d8a:	4492                	lw	s1,4(sp)
    2d8c:	4902                	lw	s2,0(sp)
    2d8e:	0141                	addi	sp,sp,16
    2d90:	8082                	ret

00002d92 <__sinit>:
__sinit():
    2d92:	4d1c                	lw	a5,24(a0)
    2d94:	e3bd                	bnez	a5,2dfa <__sinit+0x68>
    2d96:	1141                	addi	sp,sp,-16
    2d98:	c606                	sw	ra,12(sp)
    2d9a:	c422                	sw	s0,8(sp)
    2d9c:	00000797          	auipc	a5,0x0
    2da0:	fa678793          	addi	a5,a5,-90 # 2d42 <_cleanup_r>
    2da4:	d51c                	sw	a5,40(a0)
    2da6:	00002797          	auipc	a5,0x2
    2daa:	7ea78793          	addi	a5,a5,2026 # 5590 <_global_impure_ptr>
    2dae:	439c                	lw	a5,0(a5)
    2db0:	04052423          	sw	zero,72(a0)
    2db4:	04052623          	sw	zero,76(a0)
    2db8:	04052823          	sw	zero,80(a0)
    2dbc:	00f51463          	bne	a0,a5,2dc4 <__sinit+0x32>
    2dc0:	4785                	li	a5,1
    2dc2:	cd1c                	sw	a5,24(a0)
    2dc4:	842a                	mv	s0,a0
    2dc6:	281d                	jal	2dfc <__sfp>
    2dc8:	c048                	sw	a0,4(s0)
    2dca:	8522                	mv	a0,s0
    2dcc:	2805                	jal	2dfc <__sfp>
    2dce:	c408                	sw	a0,8(s0)
    2dd0:	8522                	mv	a0,s0
    2dd2:	202d                	jal	2dfc <__sfp>
    2dd4:	c448                	sw	a0,12(s0)
    2dd6:	4048                	lw	a0,4(s0)
    2dd8:	4601                	li	a2,0
    2dda:	4591                	li	a1,4
    2ddc:	3df5                	jal	2cd8 <std>
    2dde:	4408                	lw	a0,8(s0)
    2de0:	4605                	li	a2,1
    2de2:	45a5                	li	a1,9
    2de4:	3dd5                	jal	2cd8 <std>
    2de6:	4448                	lw	a0,12(s0)
    2de8:	4609                	li	a2,2
    2dea:	45c9                	li	a1,18
    2dec:	35f5                	jal	2cd8 <std>
    2dee:	4785                	li	a5,1
    2df0:	cc1c                	sw	a5,24(s0)
    2df2:	40b2                	lw	ra,12(sp)
    2df4:	4422                	lw	s0,8(sp)
    2df6:	0141                	addi	sp,sp,16
    2df8:	8082                	ret
    2dfa:	8082                	ret

00002dfc <__sfp>:
__sfp():
    2dfc:	1141                	addi	sp,sp,-16
    2dfe:	00002797          	auipc	a5,0x2
    2e02:	79278793          	addi	a5,a5,1938 # 5590 <_global_impure_ptr>
    2e06:	c226                	sw	s1,4(sp)
    2e08:	4384                	lw	s1,0(a5)
    2e0a:	c04a                	sw	s2,0(sp)
    2e0c:	c606                	sw	ra,12(sp)
    2e0e:	4c9c                	lw	a5,24(s1)
    2e10:	c422                	sw	s0,8(sp)
    2e12:	892a                	mv	s2,a0
    2e14:	e399                	bnez	a5,2e1a <__sfp+0x1e>
    2e16:	8526                	mv	a0,s1
    2e18:	3fad                	jal	2d92 <__sinit>
    2e1a:	04848493          	addi	s1,s1,72
    2e1e:	4480                	lw	s0,8(s1)
    2e20:	40dc                	lw	a5,4(s1)
    2e22:	17fd                	addi	a5,a5,-1
    2e24:	0007d663          	bgez	a5,2e30 <__sfp+0x34>
    2e28:	409c                	lw	a5,0(s1)
    2e2a:	cfb9                	beqz	a5,2e88 <__sfp+0x8c>
    2e2c:	4084                	lw	s1,0(s1)
    2e2e:	bfc5                	j	2e1e <__sfp+0x22>
    2e30:	00c41703          	lh	a4,12(s0)
    2e34:	e739                	bnez	a4,2e82 <__sfp+0x86>
    2e36:	77c1                	lui	a5,0xffff0
    2e38:	0785                	addi	a5,a5,1
    2e3a:	06042223          	sw	zero,100(s0)
    2e3e:	00042023          	sw	zero,0(s0)
    2e42:	00042223          	sw	zero,4(s0)
    2e46:	00042423          	sw	zero,8(s0)
    2e4a:	c45c                	sw	a5,12(s0)
    2e4c:	00042823          	sw	zero,16(s0)
    2e50:	00042a23          	sw	zero,20(s0)
    2e54:	00042c23          	sw	zero,24(s0)
    2e58:	4621                	li	a2,8
    2e5a:	4581                	li	a1,0
    2e5c:	05c40513          	addi	a0,s0,92
    2e60:	e7ffd0ef          	jal	ra,cde <memset>
    2e64:	02042a23          	sw	zero,52(s0)
    2e68:	02042c23          	sw	zero,56(s0)
    2e6c:	04042423          	sw	zero,72(s0)
    2e70:	04042623          	sw	zero,76(s0)
    2e74:	8522                	mv	a0,s0
    2e76:	40b2                	lw	ra,12(sp)
    2e78:	4422                	lw	s0,8(sp)
    2e7a:	4492                	lw	s1,4(sp)
    2e7c:	4902                	lw	s2,0(sp)
    2e7e:	0141                	addi	sp,sp,16
    2e80:	8082                	ret
    2e82:	06840413          	addi	s0,s0,104
    2e86:	bf71                	j	2e22 <__sfp+0x26>
    2e88:	4591                	li	a1,4
    2e8a:	854a                	mv	a0,s2
    2e8c:	35c1                	jal	2d4c <__sfmoreglue>
    2e8e:	c088                	sw	a0,0(s1)
    2e90:	fd51                	bnez	a0,2e2c <__sfp+0x30>
    2e92:	47b1                	li	a5,12
    2e94:	00f92023          	sw	a5,0(s2)
    2e98:	4401                	li	s0,0
    2e9a:	bfe9                	j	2e74 <__sfp+0x78>

00002e9c <_fwalk_reent>:
_fwalk_reent():
    2e9c:	7179                	addi	sp,sp,-48
    2e9e:	d422                	sw	s0,40(sp)
    2ea0:	d04a                	sw	s2,32(sp)
    2ea2:	cc52                	sw	s4,24(sp)
    2ea4:	ca56                	sw	s5,20(sp)
    2ea6:	c85a                	sw	s6,16(sp)
    2ea8:	c65e                	sw	s7,12(sp)
    2eaa:	d606                	sw	ra,44(sp)
    2eac:	d226                	sw	s1,36(sp)
    2eae:	ce4e                	sw	s3,28(sp)
    2eb0:	8a2a                	mv	s4,a0
    2eb2:	8aae                	mv	s5,a1
    2eb4:	04850413          	addi	s0,a0,72
    2eb8:	4901                	li	s2,0
    2eba:	4b05                	li	s6,1
    2ebc:	5bfd                	li	s7,-1
    2ebe:	ec09                	bnez	s0,2ed8 <_fwalk_reent+0x3c>
    2ec0:	50b2                	lw	ra,44(sp)
    2ec2:	5422                	lw	s0,40(sp)
    2ec4:	854a                	mv	a0,s2
    2ec6:	5492                	lw	s1,36(sp)
    2ec8:	5902                	lw	s2,32(sp)
    2eca:	49f2                	lw	s3,28(sp)
    2ecc:	4a62                	lw	s4,24(sp)
    2ece:	4ad2                	lw	s5,20(sp)
    2ed0:	4b42                	lw	s6,16(sp)
    2ed2:	4bb2                	lw	s7,12(sp)
    2ed4:	6145                	addi	sp,sp,48
    2ed6:	8082                	ret
    2ed8:	4404                	lw	s1,8(s0)
    2eda:	00442983          	lw	s3,4(s0)
    2ede:	19fd                	addi	s3,s3,-1
    2ee0:	0009d463          	bgez	s3,2ee8 <_fwalk_reent+0x4c>
    2ee4:	4000                	lw	s0,0(s0)
    2ee6:	bfe1                	j	2ebe <_fwalk_reent+0x22>
    2ee8:	00c4d783          	lhu	a5,12(s1)
    2eec:	00fb7b63          	bgeu	s6,a5,2f02 <_fwalk_reent+0x66>
    2ef0:	00e49783          	lh	a5,14(s1)
    2ef4:	01778763          	beq	a5,s7,2f02 <_fwalk_reent+0x66>
    2ef8:	85a6                	mv	a1,s1
    2efa:	8552                	mv	a0,s4
    2efc:	9a82                	jalr	s5
    2efe:	00a96933          	or	s2,s2,a0
    2f02:	06848493          	addi	s1,s1,104
    2f06:	bfe1                	j	2ede <_fwalk_reent+0x42>

00002f08 <__swhatbuf_r>:
__swhatbuf_r():
    2f08:	7119                	addi	sp,sp,-128
    2f0a:	daa6                	sw	s1,116(sp)
    2f0c:	84ae                	mv	s1,a1
    2f0e:	00e59583          	lh	a1,14(a1)
    2f12:	dca2                	sw	s0,120(sp)
    2f14:	de86                	sw	ra,124(sp)
    2f16:	8432                	mv	s0,a2
    2f18:	0005dc63          	bgez	a1,2f30 <__swhatbuf_r+0x28>
    2f1c:	00c4d783          	lhu	a5,12(s1)
    2f20:	0006a023          	sw	zero,0(a3)
    2f24:	0807f793          	andi	a5,a5,128
    2f28:	e785                	bnez	a5,2f50 <__swhatbuf_r+0x48>
    2f2a:	40000793          	li	a5,1024
    2f2e:	a01d                	j	2f54 <__swhatbuf_r+0x4c>
    2f30:	0830                	addi	a2,sp,24
    2f32:	c636                	sw	a3,12(sp)
    2f34:	5bf000ef          	jal	ra,3cf2 <_fstat_r>
    2f38:	46b2                	lw	a3,12(sp)
    2f3a:	fe0541e3          	bltz	a0,2f1c <__swhatbuf_r+0x14>
    2f3e:	4772                	lw	a4,28(sp)
    2f40:	67bd                	lui	a5,0xf
    2f42:	8ff9                	and	a5,a5,a4
    2f44:	7779                	lui	a4,0xffffe
    2f46:	97ba                	add	a5,a5,a4
    2f48:	0017b793          	seqz	a5,a5
    2f4c:	c29c                	sw	a5,0(a3)
    2f4e:	bff1                	j	2f2a <__swhatbuf_r+0x22>
    2f50:	04000793          	li	a5,64
    2f54:	c01c                	sw	a5,0(s0)
    2f56:	50f6                	lw	ra,124(sp)
    2f58:	5466                	lw	s0,120(sp)
    2f5a:	54d6                	lw	s1,116(sp)
    2f5c:	4501                	li	a0,0
    2f5e:	6109                	addi	sp,sp,128
    2f60:	8082                	ret

00002f62 <__smakebuf_r>:
__smakebuf_r():
    2f62:	00c5d783          	lhu	a5,12(a1)
    2f66:	1101                	addi	sp,sp,-32
    2f68:	cc22                	sw	s0,24(sp)
    2f6a:	ce06                	sw	ra,28(sp)
    2f6c:	ca26                	sw	s1,20(sp)
    2f6e:	c84a                	sw	s2,16(sp)
    2f70:	8b89                	andi	a5,a5,2
    2f72:	842e                	mv	s0,a1
    2f74:	cf89                	beqz	a5,2f8e <__smakebuf_r+0x2c>
    2f76:	04740793          	addi	a5,s0,71
    2f7a:	c01c                	sw	a5,0(s0)
    2f7c:	c81c                	sw	a5,16(s0)
    2f7e:	4785                	li	a5,1
    2f80:	c85c                	sw	a5,20(s0)
    2f82:	40f2                	lw	ra,28(sp)
    2f84:	4462                	lw	s0,24(sp)
    2f86:	44d2                	lw	s1,20(sp)
    2f88:	4942                	lw	s2,16(sp)
    2f8a:	6105                	addi	sp,sp,32
    2f8c:	8082                	ret
    2f8e:	0074                	addi	a3,sp,12
    2f90:	0030                	addi	a2,sp,8
    2f92:	84aa                	mv	s1,a0
    2f94:	3f95                	jal	2f08 <__swhatbuf_r>
    2f96:	45a2                	lw	a1,8(sp)
    2f98:	892a                	mv	s2,a0
    2f9a:	8526                	mv	a0,s1
    2f9c:	2231                	jal	30a8 <_malloc_r>
    2f9e:	ed01                	bnez	a0,2fb6 <__smakebuf_r+0x54>
    2fa0:	00c41783          	lh	a5,12(s0)
    2fa4:	2007f713          	andi	a4,a5,512
    2fa8:	ff69                	bnez	a4,2f82 <__smakebuf_r+0x20>
    2faa:	9bf1                	andi	a5,a5,-4
    2fac:	0027e793          	ori	a5,a5,2
    2fb0:	00f41623          	sh	a5,12(s0)
    2fb4:	b7c9                	j	2f76 <__smakebuf_r+0x14>
    2fb6:	00000797          	auipc	a5,0x0
    2fba:	d8c78793          	addi	a5,a5,-628 # 2d42 <_cleanup_r>
    2fbe:	d49c                	sw	a5,40(s1)
    2fc0:	00c45783          	lhu	a5,12(s0)
    2fc4:	c008                	sw	a0,0(s0)
    2fc6:	c808                	sw	a0,16(s0)
    2fc8:	0807e793          	ori	a5,a5,128
    2fcc:	00f41623          	sh	a5,12(s0)
    2fd0:	47a2                	lw	a5,8(sp)
    2fd2:	c85c                	sw	a5,20(s0)
    2fd4:	47b2                	lw	a5,12(sp)
    2fd6:	cf91                	beqz	a5,2ff2 <__smakebuf_r+0x90>
    2fd8:	00e41583          	lh	a1,14(s0)
    2fdc:	8526                	mv	a0,s1
    2fde:	547000ef          	jal	ra,3d24 <_isatty_r>
    2fe2:	c901                	beqz	a0,2ff2 <__smakebuf_r+0x90>
    2fe4:	00c45783          	lhu	a5,12(s0)
    2fe8:	9bf1                	andi	a5,a5,-4
    2fea:	0017e793          	ori	a5,a5,1
    2fee:	00f41623          	sh	a5,12(s0)
    2ff2:	00c45783          	lhu	a5,12(s0)
    2ff6:	00f96933          	or	s2,s2,a5
    2ffa:	01241623          	sh	s2,12(s0)
    2ffe:	b751                	j	2f82 <__smakebuf_r+0x20>

00003000 <_free_r>:
_free_r():
    3000:	c1dd                	beqz	a1,30a6 <_free_r+0xa6>
    3002:	ffc5a783          	lw	a5,-4(a1)
    3006:	1141                	addi	sp,sp,-16
    3008:	c422                	sw	s0,8(sp)
    300a:	c606                	sw	ra,12(sp)
    300c:	c226                	sw	s1,4(sp)
    300e:	ffc58413          	addi	s0,a1,-4
    3012:	0007d363          	bgez	a5,3018 <_free_r+0x18>
    3016:	943e                	add	s0,s0,a5
    3018:	84aa                	mv	s1,a0
    301a:	5d3000ef          	jal	ra,3dec <__malloc_lock>
    301e:	82818793          	addi	a5,gp,-2008 # 20000d08 <__malloc_free_list>
    3022:	439c                	lw	a5,0(a5)
    3024:	ef81                	bnez	a5,303c <_free_r+0x3c>
    3026:	00042223          	sw	zero,4(s0)
    302a:	8281a423          	sw	s0,-2008(gp) # 20000d08 <__malloc_free_list>
    302e:	4422                	lw	s0,8(sp)
    3030:	40b2                	lw	ra,12(sp)
    3032:	8526                	mv	a0,s1
    3034:	4492                	lw	s1,4(sp)
    3036:	0141                	addi	sp,sp,16
    3038:	5b70006f          	j	3dee <__malloc_unlock>
    303c:	00f47e63          	bgeu	s0,a5,3058 <_free_r+0x58>
    3040:	4014                	lw	a3,0(s0)
    3042:	00d40733          	add	a4,s0,a3
    3046:	00e79663          	bne	a5,a4,3052 <_free_r+0x52>
    304a:	4398                	lw	a4,0(a5)
    304c:	43dc                	lw	a5,4(a5)
    304e:	9736                	add	a4,a4,a3
    3050:	c018                	sw	a4,0(s0)
    3052:	c05c                	sw	a5,4(s0)
    3054:	bfd9                	j	302a <_free_r+0x2a>
    3056:	87ba                	mv	a5,a4
    3058:	43d8                	lw	a4,4(a5)
    305a:	c319                	beqz	a4,3060 <_free_r+0x60>
    305c:	fee47de3          	bgeu	s0,a4,3056 <_free_r+0x56>
    3060:	4394                	lw	a3,0(a5)
    3062:	00d78633          	add	a2,a5,a3
    3066:	00861f63          	bne	a2,s0,3084 <_free_r+0x84>
    306a:	4010                	lw	a2,0(s0)
    306c:	96b2                	add	a3,a3,a2
    306e:	c394                	sw	a3,0(a5)
    3070:	00d78633          	add	a2,a5,a3
    3074:	fac71de3          	bne	a4,a2,302e <_free_r+0x2e>
    3078:	4310                	lw	a2,0(a4)
    307a:	4358                	lw	a4,4(a4)
    307c:	96b2                	add	a3,a3,a2
    307e:	c394                	sw	a3,0(a5)
    3080:	c3d8                	sw	a4,4(a5)
    3082:	b775                	j	302e <_free_r+0x2e>
    3084:	00c47563          	bgeu	s0,a2,308e <_free_r+0x8e>
    3088:	47b1                	li	a5,12
    308a:	c09c                	sw	a5,0(s1)
    308c:	b74d                	j	302e <_free_r+0x2e>
    308e:	4010                	lw	a2,0(s0)
    3090:	00c406b3          	add	a3,s0,a2
    3094:	00d71663          	bne	a4,a3,30a0 <_free_r+0xa0>
    3098:	4314                	lw	a3,0(a4)
    309a:	4358                	lw	a4,4(a4)
    309c:	96b2                	add	a3,a3,a2
    309e:	c014                	sw	a3,0(s0)
    30a0:	c058                	sw	a4,4(s0)
    30a2:	c3c0                	sw	s0,4(a5)
    30a4:	b769                	j	302e <_free_r+0x2e>
    30a6:	8082                	ret

000030a8 <_malloc_r>:
_malloc_r():
    30a8:	1101                	addi	sp,sp,-32
    30aa:	ca26                	sw	s1,20(sp)
    30ac:	00358493          	addi	s1,a1,3
    30b0:	98f1                	andi	s1,s1,-4
    30b2:	ce06                	sw	ra,28(sp)
    30b4:	cc22                	sw	s0,24(sp)
    30b6:	c84a                	sw	s2,16(sp)
    30b8:	c64e                	sw	s3,12(sp)
    30ba:	04a1                	addi	s1,s1,8
    30bc:	47b1                	li	a5,12
    30be:	04f4f563          	bgeu	s1,a5,3108 <_malloc_r+0x60>
    30c2:	44b1                	li	s1,12
    30c4:	04b4e463          	bltu	s1,a1,310c <_malloc_r+0x64>
    30c8:	892a                	mv	s2,a0
    30ca:	523000ef          	jal	ra,3dec <__malloc_lock>
    30ce:	82818793          	addi	a5,gp,-2008 # 20000d08 <__malloc_free_list>
    30d2:	4398                	lw	a4,0(a5)
    30d4:	843a                	mv	s0,a4
    30d6:	e429                	bnez	s0,3120 <_malloc_r+0x78>
    30d8:	82c18793          	addi	a5,gp,-2004 # 20000d0c <__malloc_sbrk_start>
    30dc:	439c                	lw	a5,0(a5)
    30de:	e799                	bnez	a5,30ec <_malloc_r+0x44>
    30e0:	4581                	li	a1,0
    30e2:	854a                	mv	a0,s2
    30e4:	2bf000ef          	jal	ra,3ba2 <_sbrk_r>
    30e8:	82a1a623          	sw	a0,-2004(gp) # 20000d0c <__malloc_sbrk_start>
    30ec:	85a6                	mv	a1,s1
    30ee:	854a                	mv	a0,s2
    30f0:	2b3000ef          	jal	ra,3ba2 <_sbrk_r>
    30f4:	59fd                	li	s3,-1
    30f6:	07351963          	bne	a0,s3,3168 <_malloc_r+0xc0>
    30fa:	47b1                	li	a5,12
    30fc:	00f92023          	sw	a5,0(s2)
    3100:	854a                	mv	a0,s2
    3102:	4ed000ef          	jal	ra,3dee <__malloc_unlock>
    3106:	a029                	j	3110 <_malloc_r+0x68>
    3108:	fa04dee3          	bgez	s1,30c4 <_malloc_r+0x1c>
    310c:	47b1                	li	a5,12
    310e:	c11c                	sw	a5,0(a0)
    3110:	4501                	li	a0,0
    3112:	40f2                	lw	ra,28(sp)
    3114:	4462                	lw	s0,24(sp)
    3116:	44d2                	lw	s1,20(sp)
    3118:	4942                	lw	s2,16(sp)
    311a:	49b2                	lw	s3,12(sp)
    311c:	6105                	addi	sp,sp,32
    311e:	8082                	ret
    3120:	401c                	lw	a5,0(s0)
    3122:	8f85                	sub	a5,a5,s1
    3124:	0207cf63          	bltz	a5,3162 <_malloc_r+0xba>
    3128:	46ad                	li	a3,11
    312a:	00f6f663          	bgeu	a3,a5,3136 <_malloc_r+0x8e>
    312e:	c01c                	sw	a5,0(s0)
    3130:	943e                	add	s0,s0,a5
    3132:	c004                	sw	s1,0(s0)
    3134:	a031                	j	3140 <_malloc_r+0x98>
    3136:	405c                	lw	a5,4(s0)
    3138:	02871363          	bne	a4,s0,315e <_malloc_r+0xb6>
    313c:	82f1a423          	sw	a5,-2008(gp) # 20000d08 <__malloc_free_list>
    3140:	854a                	mv	a0,s2
    3142:	4ad000ef          	jal	ra,3dee <__malloc_unlock>
    3146:	00b40513          	addi	a0,s0,11
    314a:	00440793          	addi	a5,s0,4
    314e:	9961                	andi	a0,a0,-8
    3150:	40f50733          	sub	a4,a0,a5
    3154:	df5d                	beqz	a4,3112 <_malloc_r+0x6a>
    3156:	943a                	add	s0,s0,a4
    3158:	8f89                	sub	a5,a5,a0
    315a:	c01c                	sw	a5,0(s0)
    315c:	bf5d                	j	3112 <_malloc_r+0x6a>
    315e:	c35c                	sw	a5,4(a4)
    3160:	b7c5                	j	3140 <_malloc_r+0x98>
    3162:	8722                	mv	a4,s0
    3164:	4040                	lw	s0,4(s0)
    3166:	bf85                	j	30d6 <_malloc_r+0x2e>
    3168:	00350413          	addi	s0,a0,3
    316c:	9871                	andi	s0,s0,-4
    316e:	fc8502e3          	beq	a0,s0,3132 <_malloc_r+0x8a>
    3172:	40a405b3          	sub	a1,s0,a0
    3176:	854a                	mv	a0,s2
    3178:	22b000ef          	jal	ra,3ba2 <_sbrk_r>
    317c:	fb351be3          	bne	a0,s3,3132 <_malloc_r+0x8a>
    3180:	bfad                	j	30fa <_malloc_r+0x52>

00003182 <__ssputs_r>:
__ssputs_r():
    3182:	1101                	addi	sp,sp,-32
    3184:	c84a                	sw	s2,16(sp)
    3186:	0085a903          	lw	s2,8(a1)
    318a:	cc22                	sw	s0,24(sp)
    318c:	c452                	sw	s4,8(sp)
    318e:	c05a                	sw	s6,0(sp)
    3190:	ce06                	sw	ra,28(sp)
    3192:	ca26                	sw	s1,20(sp)
    3194:	c64e                	sw	s3,12(sp)
    3196:	c256                	sw	s5,4(sp)
    3198:	842e                	mv	s0,a1
    319a:	8b32                	mv	s6,a2
    319c:	8a36                	mv	s4,a3
    319e:	0926ed63          	bltu	a3,s2,3238 <__ssputs_r+0xb6>
    31a2:	00c5d783          	lhu	a5,12(a1)
    31a6:	4807f713          	andi	a4,a5,1152
    31aa:	c749                	beqz	a4,3234 <__ssputs_r+0xb2>
    31ac:	4004                	lw	s1,0(s0)
    31ae:	498c                	lw	a1,16(a1)
    31b0:	4858                	lw	a4,20(s0)
    31b2:	8aaa                	mv	s5,a0
    31b4:	40b489b3          	sub	s3,s1,a1
    31b8:	448d                	li	s1,3
    31ba:	02e484b3          	mul	s1,s1,a4
    31be:	4709                	li	a4,2
    31c0:	02e4c4b3          	div	s1,s1,a4
    31c4:	00168713          	addi	a4,a3,1
    31c8:	974e                	add	a4,a4,s3
    31ca:	00e4f363          	bgeu	s1,a4,31d0 <__ssputs_r+0x4e>
    31ce:	84ba                	mv	s1,a4
    31d0:	4007f793          	andi	a5,a5,1024
    31d4:	c3d1                	beqz	a5,3258 <__ssputs_r+0xd6>
    31d6:	85a6                	mv	a1,s1
    31d8:	8556                	mv	a0,s5
    31da:	35f9                	jal	30a8 <_malloc_r>
    31dc:	892a                	mv	s2,a0
    31de:	e50d                	bnez	a0,3208 <__ssputs_r+0x86>
    31e0:	47b1                	li	a5,12
    31e2:	00faa023          	sw	a5,0(s5)
    31e6:	00c45783          	lhu	a5,12(s0)
    31ea:	557d                	li	a0,-1
    31ec:	0407e793          	ori	a5,a5,64
    31f0:	00f41623          	sh	a5,12(s0)
    31f4:	40f2                	lw	ra,28(sp)
    31f6:	4462                	lw	s0,24(sp)
    31f8:	44d2                	lw	s1,20(sp)
    31fa:	4942                	lw	s2,16(sp)
    31fc:	49b2                	lw	s3,12(sp)
    31fe:	4a22                	lw	s4,8(sp)
    3200:	4a92                	lw	s5,4(sp)
    3202:	4b02                	lw	s6,0(sp)
    3204:	6105                	addi	sp,sp,32
    3206:	8082                	ret
    3208:	480c                	lw	a1,16(s0)
    320a:	864e                	mv	a2,s3
    320c:	d40ff0ef          	jal	ra,274c <memcpy>
    3210:	00c45783          	lhu	a5,12(s0)
    3214:	b7f7f793          	andi	a5,a5,-1153
    3218:	0807e793          	ori	a5,a5,128
    321c:	00f41623          	sh	a5,12(s0)
    3220:	01242823          	sw	s2,16(s0)
    3224:	c844                	sw	s1,20(s0)
    3226:	994e                	add	s2,s2,s3
    3228:	413484b3          	sub	s1,s1,s3
    322c:	01242023          	sw	s2,0(s0)
    3230:	c404                	sw	s1,8(s0)
    3232:	8952                	mv	s2,s4
    3234:	012a7363          	bgeu	s4,s2,323a <__ssputs_r+0xb8>
    3238:	8952                	mv	s2,s4
    323a:	4008                	lw	a0,0(s0)
    323c:	864a                	mv	a2,s2
    323e:	85da                	mv	a1,s6
    3240:	363000ef          	jal	ra,3da2 <memmove>
    3244:	441c                	lw	a5,8(s0)
    3246:	4501                	li	a0,0
    3248:	412787b3          	sub	a5,a5,s2
    324c:	c41c                	sw	a5,8(s0)
    324e:	401c                	lw	a5,0(s0)
    3250:	993e                	add	s2,s2,a5
    3252:	01242023          	sw	s2,0(s0)
    3256:	bf79                	j	31f4 <__ssputs_r+0x72>
    3258:	8626                	mv	a2,s1
    325a:	8556                	mv	a0,s5
    325c:	395000ef          	jal	ra,3df0 <_realloc_r>
    3260:	892a                	mv	s2,a0
    3262:	fd5d                	bnez	a0,3220 <__ssputs_r+0x9e>
    3264:	480c                	lw	a1,16(s0)
    3266:	8556                	mv	a0,s5
    3268:	3b61                	jal	3000 <_free_r>
    326a:	bf9d                	j	31e0 <__ssputs_r+0x5e>

0000326c <_svfiprintf_r>:
_svfprintf_r():
    326c:	00c5d783          	lhu	a5,12(a1)
    3270:	7171                	addi	sp,sp,-176
    3272:	d326                	sw	s1,164(sp)
    3274:	d14a                	sw	s2,160(sp)
    3276:	cf4e                	sw	s3,156(sp)
    3278:	d706                	sw	ra,172(sp)
    327a:	d522                	sw	s0,168(sp)
    327c:	cd52                	sw	s4,152(sp)
    327e:	cb56                	sw	s5,148(sp)
    3280:	c95a                	sw	s6,144(sp)
    3282:	c75e                	sw	s7,140(sp)
    3284:	c562                	sw	s8,136(sp)
    3286:	c366                	sw	s9,132(sp)
    3288:	0807f793          	andi	a5,a5,128
    328c:	89aa                	mv	s3,a0
    328e:	892e                	mv	s2,a1
    3290:	84b2                	mv	s1,a2
    3292:	c3b1                	beqz	a5,32d6 <_svfiprintf_r+0x6a>
    3294:	499c                	lw	a5,16(a1)
    3296:	e3a1                	bnez	a5,32d6 <_svfiprintf_r+0x6a>
    3298:	04000593          	li	a1,64
    329c:	c636                	sw	a3,12(sp)
    329e:	3529                	jal	30a8 <_malloc_r>
    32a0:	00a92023          	sw	a0,0(s2)
    32a4:	00a92823          	sw	a0,16(s2)
    32a8:	46b2                	lw	a3,12(sp)
    32aa:	e115                	bnez	a0,32ce <_svfiprintf_r+0x62>
    32ac:	47b1                	li	a5,12
    32ae:	00f9a023          	sw	a5,0(s3) # 20000 <_data_lma+0x1aa6c>
    32b2:	557d                	li	a0,-1
    32b4:	50ba                	lw	ra,172(sp)
    32b6:	542a                	lw	s0,168(sp)
    32b8:	549a                	lw	s1,164(sp)
    32ba:	590a                	lw	s2,160(sp)
    32bc:	49fa                	lw	s3,156(sp)
    32be:	4a6a                	lw	s4,152(sp)
    32c0:	4ada                	lw	s5,148(sp)
    32c2:	4b4a                	lw	s6,144(sp)
    32c4:	4bba                	lw	s7,140(sp)
    32c6:	4c2a                	lw	s8,136(sp)
    32c8:	4c9a                	lw	s9,132(sp)
    32ca:	614d                	addi	sp,sp,176
    32cc:	8082                	ret
    32ce:	04000793          	li	a5,64
    32d2:	00f92a23          	sw	a5,20(s2)
    32d6:	02000793          	li	a5,32
    32da:	02f10ca3          	sb	a5,57(sp)
    32de:	03000793          	li	a5,48
    32e2:	da02                	sw	zero,52(sp)
    32e4:	02f10d23          	sb	a5,58(sp)
    32e8:	ce36                	sw	a3,28(sp)
    32ea:	02500b93          	li	s7,37
    32ee:	00002a97          	auipc	s5,0x2
    32f2:	266a8a93          	addi	s5,s5,614 # 5554 <__sf_fake_stdout+0x20>
    32f6:	4c05                	li	s8,1
    32f8:	4b29                	li	s6,10
    32fa:	8426                	mv	s0,s1
    32fc:	00044783          	lbu	a5,0(s0)
    3300:	c399                	beqz	a5,3306 <_svfiprintf_r+0x9a>
    3302:	09779c63          	bne	a5,s7,339a <_svfiprintf_r+0x12e>
    3306:	40940cb3          	sub	s9,s0,s1
    330a:	000c8d63          	beqz	s9,3324 <_svfiprintf_r+0xb8>
    330e:	86e6                	mv	a3,s9
    3310:	8626                	mv	a2,s1
    3312:	85ca                	mv	a1,s2
    3314:	854e                	mv	a0,s3
    3316:	35b5                	jal	3182 <__ssputs_r>
    3318:	57fd                	li	a5,-1
    331a:	1af50463          	beq	a0,a5,34c2 <_svfiprintf_r+0x256>
    331e:	56d2                	lw	a3,52(sp)
    3320:	96e6                	add	a3,a3,s9
    3322:	da36                	sw	a3,52(sp)
    3324:	00044783          	lbu	a5,0(s0)
    3328:	18078d63          	beqz	a5,34c2 <_svfiprintf_r+0x256>
    332c:	57fd                	li	a5,-1
    332e:	00140493          	addi	s1,s0,1
    3332:	d002                	sw	zero,32(sp)
    3334:	d602                	sw	zero,44(sp)
    3336:	d23e                	sw	a5,36(sp)
    3338:	d402                	sw	zero,40(sp)
    333a:	060101a3          	sb	zero,99(sp)
    333e:	dc82                	sw	zero,120(sp)
    3340:	0004c583          	lbu	a1,0(s1)
    3344:	4615                	li	a2,5
    3346:	8556                	mv	a0,s5
    3348:	241000ef          	jal	ra,3d88 <memchr>
    334c:	00148413          	addi	s0,s1,1
    3350:	5782                	lw	a5,32(sp)
    3352:	e531                	bnez	a0,339e <_svfiprintf_r+0x132>
    3354:	0107f713          	andi	a4,a5,16
    3358:	c709                	beqz	a4,3362 <_svfiprintf_r+0xf6>
    335a:	02000713          	li	a4,32
    335e:	06e101a3          	sb	a4,99(sp)
    3362:	0087f713          	andi	a4,a5,8
    3366:	c709                	beqz	a4,3370 <_svfiprintf_r+0x104>
    3368:	02b00713          	li	a4,43
    336c:	06e101a3          	sb	a4,99(sp)
    3370:	0004c683          	lbu	a3,0(s1)
    3374:	02a00713          	li	a4,42
    3378:	02e68b63          	beq	a3,a4,33ae <_svfiprintf_r+0x142>
    337c:	57b2                	lw	a5,44(sp)
    337e:	8426                	mv	s0,s1
    3380:	4681                	li	a3,0
    3382:	4625                	li	a2,9
    3384:	00044703          	lbu	a4,0(s0)
    3388:	00140593          	addi	a1,s0,1
    338c:	fd070713          	addi	a4,a4,-48 # ffffdfd0 <_eusrstack+0xdfff5fd0>
    3390:	06e67463          	bgeu	a2,a4,33f8 <_svfiprintf_r+0x18c>
    3394:	c68d                	beqz	a3,33be <_svfiprintf_r+0x152>
    3396:	d63e                	sw	a5,44(sp)
    3398:	a01d                	j	33be <_svfiprintf_r+0x152>
    339a:	0405                	addi	s0,s0,1
    339c:	b785                	j	32fc <_svfiprintf_r+0x90>
    339e:	41550533          	sub	a0,a0,s5
    33a2:	00ac1533          	sll	a0,s8,a0
    33a6:	8fc9                	or	a5,a5,a0
    33a8:	d03e                	sw	a5,32(sp)
    33aa:	84a2                	mv	s1,s0
    33ac:	bf51                	j	3340 <_svfiprintf_r+0xd4>
    33ae:	4772                	lw	a4,28(sp)
    33b0:	00470693          	addi	a3,a4,4
    33b4:	4318                	lw	a4,0(a4)
    33b6:	ce36                	sw	a3,28(sp)
    33b8:	02074963          	bltz	a4,33ea <_svfiprintf_r+0x17e>
    33bc:	d63a                	sw	a4,44(sp)
    33be:	00044703          	lbu	a4,0(s0)
    33c2:	02e00793          	li	a5,46
    33c6:	04f71f63          	bne	a4,a5,3424 <_svfiprintf_r+0x1b8>
    33ca:	00144703          	lbu	a4,1(s0)
    33ce:	02a00793          	li	a5,42
    33d2:	02f71b63          	bne	a4,a5,3408 <_svfiprintf_r+0x19c>
    33d6:	47f2                	lw	a5,28(sp)
    33d8:	0409                	addi	s0,s0,2
    33da:	00478713          	addi	a4,a5,4
    33de:	439c                	lw	a5,0(a5)
    33e0:	ce3a                	sw	a4,28(sp)
    33e2:	0207c163          	bltz	a5,3404 <_svfiprintf_r+0x198>
    33e6:	d23e                	sw	a5,36(sp)
    33e8:	a835                	j	3424 <_svfiprintf_r+0x1b8>
    33ea:	40e00733          	neg	a4,a4
    33ee:	0027e793          	ori	a5,a5,2
    33f2:	d63a                	sw	a4,44(sp)
    33f4:	d03e                	sw	a5,32(sp)
    33f6:	b7e1                	j	33be <_svfiprintf_r+0x152>
    33f8:	036787b3          	mul	a5,a5,s6
    33fc:	4685                	li	a3,1
    33fe:	842e                	mv	s0,a1
    3400:	97ba                	add	a5,a5,a4
    3402:	b749                	j	3384 <_svfiprintf_r+0x118>
    3404:	57fd                	li	a5,-1
    3406:	b7c5                	j	33e6 <_svfiprintf_r+0x17a>
    3408:	0405                	addi	s0,s0,1
    340a:	d202                	sw	zero,36(sp)
    340c:	4681                	li	a3,0
    340e:	4781                	li	a5,0
    3410:	4625                	li	a2,9
    3412:	00044703          	lbu	a4,0(s0)
    3416:	00140593          	addi	a1,s0,1
    341a:	fd070713          	addi	a4,a4,-48
    341e:	06e67863          	bgeu	a2,a4,348e <_svfiprintf_r+0x222>
    3422:	f2f1                	bnez	a3,33e6 <_svfiprintf_r+0x17a>
    3424:	00044583          	lbu	a1,0(s0)
    3428:	460d                	li	a2,3
    342a:	00002517          	auipc	a0,0x2
    342e:	13250513          	addi	a0,a0,306 # 555c <__sf_fake_stdout+0x28>
    3432:	157000ef          	jal	ra,3d88 <memchr>
    3436:	cd11                	beqz	a0,3452 <_svfiprintf_r+0x1e6>
    3438:	00002797          	auipc	a5,0x2
    343c:	12478793          	addi	a5,a5,292 # 555c <__sf_fake_stdout+0x28>
    3440:	8d1d                	sub	a0,a0,a5
    3442:	04000793          	li	a5,64
    3446:	00a797b3          	sll	a5,a5,a0
    344a:	5502                	lw	a0,32(sp)
    344c:	0405                	addi	s0,s0,1
    344e:	8d5d                	or	a0,a0,a5
    3450:	d02a                	sw	a0,32(sp)
    3452:	00044583          	lbu	a1,0(s0)
    3456:	4619                	li	a2,6
    3458:	00002517          	auipc	a0,0x2
    345c:	10850513          	addi	a0,a0,264 # 5560 <__sf_fake_stdout+0x2c>
    3460:	00140493          	addi	s1,s0,1
    3464:	02b10c23          	sb	a1,56(sp)
    3468:	121000ef          	jal	ra,3d88 <memchr>
    346c:	c525                	beqz	a0,34d4 <_svfiprintf_r+0x268>
    346e:	ffffd797          	auipc	a5,0xffffd
    3472:	b9278793          	addi	a5,a5,-1134 # 0 <_sinit>
    3476:	e795                	bnez	a5,34a2 <_svfiprintf_r+0x236>
    3478:	5702                	lw	a4,32(sp)
    347a:	47f2                	lw	a5,28(sp)
    347c:	10077713          	andi	a4,a4,256
    3480:	cf09                	beqz	a4,349a <_svfiprintf_r+0x22e>
    3482:	0791                	addi	a5,a5,4
    3484:	ce3e                	sw	a5,28(sp)
    3486:	57d2                	lw	a5,52(sp)
    3488:	97d2                	add	a5,a5,s4
    348a:	da3e                	sw	a5,52(sp)
    348c:	b5bd                	j	32fa <_svfiprintf_r+0x8e>
    348e:	036787b3          	mul	a5,a5,s6
    3492:	4685                	li	a3,1
    3494:	842e                	mv	s0,a1
    3496:	97ba                	add	a5,a5,a4
    3498:	bfad                	j	3412 <_svfiprintf_r+0x1a6>
    349a:	079d                	addi	a5,a5,7
    349c:	9be1                	andi	a5,a5,-8
    349e:	07a1                	addi	a5,a5,8
    34a0:	b7d5                	j	3484 <_svfiprintf_r+0x218>
    34a2:	0878                	addi	a4,sp,28
    34a4:	00000697          	auipc	a3,0x0
    34a8:	cde68693          	addi	a3,a3,-802 # 3182 <__ssputs_r>
    34ac:	864a                	mv	a2,s2
    34ae:	100c                	addi	a1,sp,32
    34b0:	854e                	mv	a0,s3
    34b2:	00000097          	auipc	ra,0x0
    34b6:	000000e7          	jalr	zero # 0 <_sinit>
    34ba:	57fd                	li	a5,-1
    34bc:	8a2a                	mv	s4,a0
    34be:	fcf514e3          	bne	a0,a5,3486 <_svfiprintf_r+0x21a>
    34c2:	00c95783          	lhu	a5,12(s2)
    34c6:	557d                	li	a0,-1
    34c8:	0407f793          	andi	a5,a5,64
    34cc:	de0794e3          	bnez	a5,32b4 <_svfiprintf_r+0x48>
    34d0:	5552                	lw	a0,52(sp)
    34d2:	b3cd                	j	32b4 <_svfiprintf_r+0x48>
    34d4:	0878                	addi	a4,sp,28
    34d6:	00000697          	auipc	a3,0x0
    34da:	cac68693          	addi	a3,a3,-852 # 3182 <__ssputs_r>
    34de:	864a                	mv	a2,s2
    34e0:	100c                	addi	a1,sp,32
    34e2:	854e                	mv	a0,s3
    34e4:	2919                	jal	38fa <_printf_i>
    34e6:	bfd1                	j	34ba <_svfiprintf_r+0x24e>

000034e8 <__sfputc_r>:
__sfputc_r():
    34e8:	461c                	lw	a5,8(a2)
    34ea:	17fd                	addi	a5,a5,-1
    34ec:	c61c                	sw	a5,8(a2)
    34ee:	0007da63          	bgez	a5,3502 <__sfputc_r+0x1a>
    34f2:	4e18                	lw	a4,24(a2)
    34f4:	00e7c563          	blt	a5,a4,34fe <__sfputc_r+0x16>
    34f8:	47a9                	li	a5,10
    34fa:	00f59463          	bne	a1,a5,3502 <__sfputc_r+0x1a>
    34fe:	c6eff06f          	j	296c <__swbuf_r>
    3502:	421c                	lw	a5,0(a2)
    3504:	852e                	mv	a0,a1
    3506:	00178713          	addi	a4,a5,1
    350a:	c218                	sw	a4,0(a2)
    350c:	00b78023          	sb	a1,0(a5)
    3510:	8082                	ret

00003512 <__sfputs_r>:
__sfputs_r():
    3512:	1101                	addi	sp,sp,-32
    3514:	cc22                	sw	s0,24(sp)
    3516:	ca26                	sw	s1,20(sp)
    3518:	c84a                	sw	s2,16(sp)
    351a:	c64e                	sw	s3,12(sp)
    351c:	c452                	sw	s4,8(sp)
    351e:	ce06                	sw	ra,28(sp)
    3520:	892a                	mv	s2,a0
    3522:	89ae                	mv	s3,a1
    3524:	8432                	mv	s0,a2
    3526:	00d604b3          	add	s1,a2,a3
    352a:	5a7d                	li	s4,-1
    352c:	00941463          	bne	s0,s1,3534 <__sfputs_r+0x22>
    3530:	4501                	li	a0,0
    3532:	a809                	j	3544 <__sfputs_r+0x32>
    3534:	00044583          	lbu	a1,0(s0)
    3538:	864e                	mv	a2,s3
    353a:	854a                	mv	a0,s2
    353c:	3775                	jal	34e8 <__sfputc_r>
    353e:	0405                	addi	s0,s0,1
    3540:	ff4516e3          	bne	a0,s4,352c <__sfputs_r+0x1a>
    3544:	40f2                	lw	ra,28(sp)
    3546:	4462                	lw	s0,24(sp)
    3548:	44d2                	lw	s1,20(sp)
    354a:	4942                	lw	s2,16(sp)
    354c:	49b2                	lw	s3,12(sp)
    354e:	4a22                	lw	s4,8(sp)
    3550:	6105                	addi	sp,sp,32
    3552:	8082                	ret

00003554 <_vfiprintf_r>:
_vfiprintf_r():
    3554:	7135                	addi	sp,sp,-160
    3556:	cd22                	sw	s0,152(sp)
    3558:	cb26                	sw	s1,148(sp)
    355a:	c94a                	sw	s2,144(sp)
    355c:	c74e                	sw	s3,140(sp)
    355e:	cf06                	sw	ra,156(sp)
    3560:	c552                	sw	s4,136(sp)
    3562:	c356                	sw	s5,132(sp)
    3564:	c15a                	sw	s6,128(sp)
    3566:	dede                	sw	s7,124(sp)
    3568:	dce2                	sw	s8,120(sp)
    356a:	dae6                	sw	s9,116(sp)
    356c:	89aa                	mv	s3,a0
    356e:	84ae                	mv	s1,a1
    3570:	8932                	mv	s2,a2
    3572:	8436                	mv	s0,a3
    3574:	c509                	beqz	a0,357e <_vfiprintf_r+0x2a>
    3576:	4d1c                	lw	a5,24(a0)
    3578:	e399                	bnez	a5,357e <_vfiprintf_r+0x2a>
    357a:	819ff0ef          	jal	ra,2d92 <__sinit>
    357e:	00002797          	auipc	a5,0x2
    3582:	f9678793          	addi	a5,a5,-106 # 5514 <__sf_fake_stdin>
    3586:	0cf49b63          	bne	s1,a5,365c <_vfiprintf_r+0x108>
    358a:	0049a483          	lw	s1,4(s3)
    358e:	00c4d783          	lhu	a5,12(s1)
    3592:	8ba1                	andi	a5,a5,8
    3594:	c7f5                	beqz	a5,3680 <_vfiprintf_r+0x12c>
    3596:	489c                	lw	a5,16(s1)
    3598:	c7e5                	beqz	a5,3680 <_vfiprintf_r+0x12c>
    359a:	02000793          	li	a5,32
    359e:	02f104a3          	sb	a5,41(sp)
    35a2:	03000793          	li	a5,48
    35a6:	d202                	sw	zero,36(sp)
    35a8:	02f10523          	sb	a5,42(sp)
    35ac:	c622                	sw	s0,12(sp)
    35ae:	02500b93          	li	s7,37
    35b2:	00002a97          	auipc	s5,0x2
    35b6:	fa2a8a93          	addi	s5,s5,-94 # 5554 <__sf_fake_stdout+0x20>
    35ba:	4c05                	li	s8,1
    35bc:	4b29                	li	s6,10
    35be:	844a                	mv	s0,s2
    35c0:	00044783          	lbu	a5,0(s0)
    35c4:	c399                	beqz	a5,35ca <_vfiprintf_r+0x76>
    35c6:	0f779063          	bne	a5,s7,36a6 <_vfiprintf_r+0x152>
    35ca:	41240cb3          	sub	s9,s0,s2
    35ce:	000c8d63          	beqz	s9,35e8 <_vfiprintf_r+0x94>
    35d2:	86e6                	mv	a3,s9
    35d4:	864a                	mv	a2,s2
    35d6:	85a6                	mv	a1,s1
    35d8:	854e                	mv	a0,s3
    35da:	3f25                	jal	3512 <__sfputs_r>
    35dc:	57fd                	li	a5,-1
    35de:	1ef50663          	beq	a0,a5,37ca <_vfiprintf_r+0x276>
    35e2:	5692                	lw	a3,36(sp)
    35e4:	96e6                	add	a3,a3,s9
    35e6:	d236                	sw	a3,36(sp)
    35e8:	00044783          	lbu	a5,0(s0)
    35ec:	1c078f63          	beqz	a5,37ca <_vfiprintf_r+0x276>
    35f0:	57fd                	li	a5,-1
    35f2:	00140913          	addi	s2,s0,1
    35f6:	c802                	sw	zero,16(sp)
    35f8:	ce02                	sw	zero,28(sp)
    35fa:	ca3e                	sw	a5,20(sp)
    35fc:	cc02                	sw	zero,24(sp)
    35fe:	040109a3          	sb	zero,83(sp)
    3602:	d482                	sw	zero,104(sp)
    3604:	00094583          	lbu	a1,0(s2)
    3608:	4615                	li	a2,5
    360a:	8556                	mv	a0,s5
    360c:	2fb5                	jal	3d88 <memchr>
    360e:	00190413          	addi	s0,s2,1
    3612:	47c2                	lw	a5,16(sp)
    3614:	e959                	bnez	a0,36aa <_vfiprintf_r+0x156>
    3616:	0107f713          	andi	a4,a5,16
    361a:	c709                	beqz	a4,3624 <_vfiprintf_r+0xd0>
    361c:	02000713          	li	a4,32
    3620:	04e109a3          	sb	a4,83(sp)
    3624:	0087f713          	andi	a4,a5,8
    3628:	c709                	beqz	a4,3632 <_vfiprintf_r+0xde>
    362a:	02b00713          	li	a4,43
    362e:	04e109a3          	sb	a4,83(sp)
    3632:	00094683          	lbu	a3,0(s2)
    3636:	02a00713          	li	a4,42
    363a:	08e68063          	beq	a3,a4,36ba <_vfiprintf_r+0x166>
    363e:	47f2                	lw	a5,28(sp)
    3640:	844a                	mv	s0,s2
    3642:	4681                	li	a3,0
    3644:	4625                	li	a2,9
    3646:	00044703          	lbu	a4,0(s0)
    364a:	00140593          	addi	a1,s0,1
    364e:	fd070713          	addi	a4,a4,-48
    3652:	0ae67963          	bgeu	a2,a4,3704 <_vfiprintf_r+0x1b0>
    3656:	cab5                	beqz	a3,36ca <_vfiprintf_r+0x176>
    3658:	ce3e                	sw	a5,28(sp)
    365a:	a885                	j	36ca <_vfiprintf_r+0x176>
    365c:	00002797          	auipc	a5,0x2
    3660:	ed878793          	addi	a5,a5,-296 # 5534 <__sf_fake_stdout>
    3664:	00f49563          	bne	s1,a5,366e <_vfiprintf_r+0x11a>
    3668:	0089a483          	lw	s1,8(s3)
    366c:	b70d                	j	358e <_vfiprintf_r+0x3a>
    366e:	00002797          	auipc	a5,0x2
    3672:	e8678793          	addi	a5,a5,-378 # 54f4 <__sf_fake_stderr>
    3676:	f0f49ce3          	bne	s1,a5,358e <_vfiprintf_r+0x3a>
    367a:	00c9a483          	lw	s1,12(s3)
    367e:	bf01                	j	358e <_vfiprintf_r+0x3a>
    3680:	85a6                	mv	a1,s1
    3682:	854e                	mv	a0,s3
    3684:	ba8ff0ef          	jal	ra,2a2c <__swsetup_r>
    3688:	d909                	beqz	a0,359a <_vfiprintf_r+0x46>
    368a:	557d                	li	a0,-1
    368c:	40fa                	lw	ra,156(sp)
    368e:	446a                	lw	s0,152(sp)
    3690:	44da                	lw	s1,148(sp)
    3692:	494a                	lw	s2,144(sp)
    3694:	49ba                	lw	s3,140(sp)
    3696:	4a2a                	lw	s4,136(sp)
    3698:	4a9a                	lw	s5,132(sp)
    369a:	4b0a                	lw	s6,128(sp)
    369c:	5bf6                	lw	s7,124(sp)
    369e:	5c66                	lw	s8,120(sp)
    36a0:	5cd6                	lw	s9,116(sp)
    36a2:	610d                	addi	sp,sp,160
    36a4:	8082                	ret
    36a6:	0405                	addi	s0,s0,1
    36a8:	bf21                	j	35c0 <_vfiprintf_r+0x6c>
    36aa:	41550533          	sub	a0,a0,s5
    36ae:	00ac1533          	sll	a0,s8,a0
    36b2:	8fc9                	or	a5,a5,a0
    36b4:	c83e                	sw	a5,16(sp)
    36b6:	8922                	mv	s2,s0
    36b8:	b7b1                	j	3604 <_vfiprintf_r+0xb0>
    36ba:	4732                	lw	a4,12(sp)
    36bc:	00470693          	addi	a3,a4,4
    36c0:	4318                	lw	a4,0(a4)
    36c2:	c636                	sw	a3,12(sp)
    36c4:	02074963          	bltz	a4,36f6 <_vfiprintf_r+0x1a2>
    36c8:	ce3a                	sw	a4,28(sp)
    36ca:	00044703          	lbu	a4,0(s0)
    36ce:	02e00793          	li	a5,46
    36d2:	04f71f63          	bne	a4,a5,3730 <_vfiprintf_r+0x1dc>
    36d6:	00144703          	lbu	a4,1(s0)
    36da:	02a00793          	li	a5,42
    36de:	02f71b63          	bne	a4,a5,3714 <_vfiprintf_r+0x1c0>
    36e2:	47b2                	lw	a5,12(sp)
    36e4:	0409                	addi	s0,s0,2
    36e6:	00478713          	addi	a4,a5,4
    36ea:	439c                	lw	a5,0(a5)
    36ec:	c63a                	sw	a4,12(sp)
    36ee:	0207c163          	bltz	a5,3710 <_vfiprintf_r+0x1bc>
    36f2:	ca3e                	sw	a5,20(sp)
    36f4:	a835                	j	3730 <_vfiprintf_r+0x1dc>
    36f6:	40e00733          	neg	a4,a4
    36fa:	0027e793          	ori	a5,a5,2
    36fe:	ce3a                	sw	a4,28(sp)
    3700:	c83e                	sw	a5,16(sp)
    3702:	b7e1                	j	36ca <_vfiprintf_r+0x176>
    3704:	036787b3          	mul	a5,a5,s6
    3708:	4685                	li	a3,1
    370a:	842e                	mv	s0,a1
    370c:	97ba                	add	a5,a5,a4
    370e:	bf25                	j	3646 <_vfiprintf_r+0xf2>
    3710:	57fd                	li	a5,-1
    3712:	b7c5                	j	36f2 <_vfiprintf_r+0x19e>
    3714:	0405                	addi	s0,s0,1
    3716:	ca02                	sw	zero,20(sp)
    3718:	4681                	li	a3,0
    371a:	4781                	li	a5,0
    371c:	4625                	li	a2,9
    371e:	00044703          	lbu	a4,0(s0)
    3722:	00140593          	addi	a1,s0,1
    3726:	fd070713          	addi	a4,a4,-48
    372a:	06e67663          	bgeu	a2,a4,3796 <_vfiprintf_r+0x242>
    372e:	f2f1                	bnez	a3,36f2 <_vfiprintf_r+0x19e>
    3730:	00044583          	lbu	a1,0(s0)
    3734:	460d                	li	a2,3
    3736:	00002517          	auipc	a0,0x2
    373a:	e2650513          	addi	a0,a0,-474 # 555c <__sf_fake_stdout+0x28>
    373e:	25a9                	jal	3d88 <memchr>
    3740:	cd11                	beqz	a0,375c <_vfiprintf_r+0x208>
    3742:	00002797          	auipc	a5,0x2
    3746:	e1a78793          	addi	a5,a5,-486 # 555c <__sf_fake_stdout+0x28>
    374a:	8d1d                	sub	a0,a0,a5
    374c:	04000793          	li	a5,64
    3750:	00a797b3          	sll	a5,a5,a0
    3754:	4542                	lw	a0,16(sp)
    3756:	0405                	addi	s0,s0,1
    3758:	8d5d                	or	a0,a0,a5
    375a:	c82a                	sw	a0,16(sp)
    375c:	00044583          	lbu	a1,0(s0)
    3760:	4619                	li	a2,6
    3762:	00002517          	auipc	a0,0x2
    3766:	dfe50513          	addi	a0,a0,-514 # 5560 <__sf_fake_stdout+0x2c>
    376a:	00140913          	addi	s2,s0,1
    376e:	02b10423          	sb	a1,40(sp)
    3772:	2d19                	jal	3d88 <memchr>
    3774:	c13d                	beqz	a0,37da <_vfiprintf_r+0x286>
    3776:	ffffd797          	auipc	a5,0xffffd
    377a:	88a78793          	addi	a5,a5,-1910 # 0 <_sinit>
    377e:	e795                	bnez	a5,37aa <_vfiprintf_r+0x256>
    3780:	4742                	lw	a4,16(sp)
    3782:	47b2                	lw	a5,12(sp)
    3784:	10077713          	andi	a4,a4,256
    3788:	cf09                	beqz	a4,37a2 <_vfiprintf_r+0x24e>
    378a:	0791                	addi	a5,a5,4
    378c:	c63e                	sw	a5,12(sp)
    378e:	5792                	lw	a5,36(sp)
    3790:	97d2                	add	a5,a5,s4
    3792:	d23e                	sw	a5,36(sp)
    3794:	b52d                	j	35be <_vfiprintf_r+0x6a>
    3796:	036787b3          	mul	a5,a5,s6
    379a:	4685                	li	a3,1
    379c:	842e                	mv	s0,a1
    379e:	97ba                	add	a5,a5,a4
    37a0:	bfbd                	j	371e <_vfiprintf_r+0x1ca>
    37a2:	079d                	addi	a5,a5,7
    37a4:	9be1                	andi	a5,a5,-8
    37a6:	07a1                	addi	a5,a5,8
    37a8:	b7d5                	j	378c <_vfiprintf_r+0x238>
    37aa:	0078                	addi	a4,sp,12
    37ac:	00000697          	auipc	a3,0x0
    37b0:	d6668693          	addi	a3,a3,-666 # 3512 <__sfputs_r>
    37b4:	8626                	mv	a2,s1
    37b6:	080c                	addi	a1,sp,16
    37b8:	854e                	mv	a0,s3
    37ba:	00000097          	auipc	ra,0x0
    37be:	000000e7          	jalr	zero # 0 <_sinit>
    37c2:	57fd                	li	a5,-1
    37c4:	8a2a                	mv	s4,a0
    37c6:	fcf514e3          	bne	a0,a5,378e <_vfiprintf_r+0x23a>
    37ca:	00c4d783          	lhu	a5,12(s1)
    37ce:	0407f793          	andi	a5,a5,64
    37d2:	ea079ce3          	bnez	a5,368a <_vfiprintf_r+0x136>
    37d6:	5512                	lw	a0,36(sp)
    37d8:	bd55                	j	368c <_vfiprintf_r+0x138>
    37da:	0078                	addi	a4,sp,12
    37dc:	00000697          	auipc	a3,0x0
    37e0:	d3668693          	addi	a3,a3,-714 # 3512 <__sfputs_r>
    37e4:	8626                	mv	a2,s1
    37e6:	080c                	addi	a1,sp,16
    37e8:	854e                	mv	a0,s3
    37ea:	2a01                	jal	38fa <_printf_i>
    37ec:	bfd9                	j	37c2 <_vfiprintf_r+0x26e>

000037ee <_printf_common>:
_printf_common():
    37ee:	7179                	addi	sp,sp,-48
    37f0:	ca56                	sw	s5,20(sp)
    37f2:	499c                	lw	a5,16(a1)
    37f4:	8aba                	mv	s5,a4
    37f6:	4598                	lw	a4,8(a1)
    37f8:	d422                	sw	s0,40(sp)
    37fa:	d226                	sw	s1,36(sp)
    37fc:	ce4e                	sw	s3,28(sp)
    37fe:	cc52                	sw	s4,24(sp)
    3800:	d606                	sw	ra,44(sp)
    3802:	d04a                	sw	s2,32(sp)
    3804:	c85a                	sw	s6,16(sp)
    3806:	c65e                	sw	s7,12(sp)
    3808:	89aa                	mv	s3,a0
    380a:	842e                	mv	s0,a1
    380c:	84b2                	mv	s1,a2
    380e:	8a36                	mv	s4,a3
    3810:	00e7d363          	bge	a5,a4,3816 <_printf_common+0x28>
    3814:	87ba                	mv	a5,a4
    3816:	c09c                	sw	a5,0(s1)
    3818:	04344703          	lbu	a4,67(s0)
    381c:	c319                	beqz	a4,3822 <_printf_common+0x34>
    381e:	0785                	addi	a5,a5,1
    3820:	c09c                	sw	a5,0(s1)
    3822:	401c                	lw	a5,0(s0)
    3824:	0207f793          	andi	a5,a5,32
    3828:	c781                	beqz	a5,3830 <_printf_common+0x42>
    382a:	409c                	lw	a5,0(s1)
    382c:	0789                	addi	a5,a5,2
    382e:	c09c                	sw	a5,0(s1)
    3830:	00042903          	lw	s2,0(s0)
    3834:	00697913          	andi	s2,s2,6
    3838:	00091a63          	bnez	s2,384c <_printf_common+0x5e>
    383c:	01940b13          	addi	s6,s0,25
    3840:	5bfd                	li	s7,-1
    3842:	445c                	lw	a5,12(s0)
    3844:	4098                	lw	a4,0(s1)
    3846:	8f99                	sub	a5,a5,a4
    3848:	04f94c63          	blt	s2,a5,38a0 <_printf_common+0xb2>
    384c:	401c                	lw	a5,0(s0)
    384e:	04344683          	lbu	a3,67(s0)
    3852:	0207f793          	andi	a5,a5,32
    3856:	00d036b3          	snez	a3,a3
    385a:	eba5                	bnez	a5,38ca <_printf_common+0xdc>
    385c:	04340613          	addi	a2,s0,67
    3860:	85d2                	mv	a1,s4
    3862:	854e                	mv	a0,s3
    3864:	9a82                	jalr	s5
    3866:	57fd                	li	a5,-1
    3868:	04f50363          	beq	a0,a5,38ae <_printf_common+0xc0>
    386c:	401c                	lw	a5,0(s0)
    386e:	4611                	li	a2,4
    3870:	4098                	lw	a4,0(s1)
    3872:	8b99                	andi	a5,a5,6
    3874:	4454                	lw	a3,12(s0)
    3876:	4481                	li	s1,0
    3878:	00c79763          	bne	a5,a2,3886 <_printf_common+0x98>
    387c:	40e684b3          	sub	s1,a3,a4
    3880:	0004d363          	bgez	s1,3886 <_printf_common+0x98>
    3884:	4481                	li	s1,0
    3886:	441c                	lw	a5,8(s0)
    3888:	4818                	lw	a4,16(s0)
    388a:	00f75463          	bge	a4,a5,3892 <_printf_common+0xa4>
    388e:	8f99                	sub	a5,a5,a4
    3890:	94be                	add	s1,s1,a5
    3892:	4901                	li	s2,0
    3894:	0469                	addi	s0,s0,26
    3896:	5b7d                	li	s6,-1
    3898:	05249863          	bne	s1,s2,38e8 <_printf_common+0xfa>
    389c:	4501                	li	a0,0
    389e:	a809                	j	38b0 <_printf_common+0xc2>
    38a0:	4685                	li	a3,1
    38a2:	865a                	mv	a2,s6
    38a4:	85d2                	mv	a1,s4
    38a6:	854e                	mv	a0,s3
    38a8:	9a82                	jalr	s5
    38aa:	01751e63          	bne	a0,s7,38c6 <_printf_common+0xd8>
    38ae:	557d                	li	a0,-1
    38b0:	50b2                	lw	ra,44(sp)
    38b2:	5422                	lw	s0,40(sp)
    38b4:	5492                	lw	s1,36(sp)
    38b6:	5902                	lw	s2,32(sp)
    38b8:	49f2                	lw	s3,28(sp)
    38ba:	4a62                	lw	s4,24(sp)
    38bc:	4ad2                	lw	s5,20(sp)
    38be:	4b42                	lw	s6,16(sp)
    38c0:	4bb2                	lw	s7,12(sp)
    38c2:	6145                	addi	sp,sp,48
    38c4:	8082                	ret
    38c6:	0905                	addi	s2,s2,1
    38c8:	bfad                	j	3842 <_printf_common+0x54>
    38ca:	00d40733          	add	a4,s0,a3
    38ce:	03000613          	li	a2,48
    38d2:	04c701a3          	sb	a2,67(a4)
    38d6:	04544703          	lbu	a4,69(s0)
    38da:	00168793          	addi	a5,a3,1
    38de:	97a2                	add	a5,a5,s0
    38e0:	0689                	addi	a3,a3,2
    38e2:	04e781a3          	sb	a4,67(a5)
    38e6:	bf9d                	j	385c <_printf_common+0x6e>
    38e8:	4685                	li	a3,1
    38ea:	8622                	mv	a2,s0
    38ec:	85d2                	mv	a1,s4
    38ee:	854e                	mv	a0,s3
    38f0:	9a82                	jalr	s5
    38f2:	fb650ee3          	beq	a0,s6,38ae <_printf_common+0xc0>
    38f6:	0905                	addi	s2,s2,1
    38f8:	b745                	j	3898 <_printf_common+0xaa>

000038fa <_printf_i>:
_printf_i():
    38fa:	7179                	addi	sp,sp,-48
    38fc:	d422                	sw	s0,40(sp)
    38fe:	d226                	sw	s1,36(sp)
    3900:	d04a                	sw	s2,32(sp)
    3902:	ce4e                	sw	s3,28(sp)
    3904:	d606                	sw	ra,44(sp)
    3906:	cc52                	sw	s4,24(sp)
    3908:	ca56                	sw	s5,20(sp)
    390a:	c85a                	sw	s6,16(sp)
    390c:	89b6                	mv	s3,a3
    390e:	0185c683          	lbu	a3,24(a1)
    3912:	06900793          	li	a5,105
    3916:	8932                	mv	s2,a2
    3918:	84aa                	mv	s1,a0
    391a:	842e                	mv	s0,a1
    391c:	04358613          	addi	a2,a1,67
    3920:	02f68d63          	beq	a3,a5,395a <_printf_i+0x60>
    3924:	06d7e263          	bltu	a5,a3,3988 <_printf_i+0x8e>
    3928:	05800793          	li	a5,88
    392c:	18f68763          	beq	a3,a5,3aba <_printf_i+0x1c0>
    3930:	00d7ed63          	bltu	a5,a3,394a <_printf_i+0x50>
    3934:	22068063          	beqz	a3,3b54 <_printf_i+0x25a>
    3938:	04300793          	li	a5,67
    393c:	0af68e63          	beq	a3,a5,39f8 <_printf_i+0xfe>
    3940:	04240a93          	addi	s5,s0,66
    3944:	04d40123          	sb	a3,66(s0)
    3948:	a0c9                	j	3a0a <_printf_i+0x110>
    394a:	06300793          	li	a5,99
    394e:	0af68563          	beq	a3,a5,39f8 <_printf_i+0xfe>
    3952:	06400793          	li	a5,100
    3956:	fef695e3          	bne	a3,a5,3940 <_printf_i+0x46>
    395a:	401c                	lw	a5,0(s0)
    395c:	4308                	lw	a0,0(a4)
    395e:	0807f693          	andi	a3,a5,128
    3962:	00450593          	addi	a1,a0,4
    3966:	c6c5                	beqz	a3,3a0e <_printf_i+0x114>
    3968:	411c                	lw	a5,0(a0)
    396a:	c30c                	sw	a1,0(a4)
    396c:	0007d863          	bgez	a5,397c <_printf_i+0x82>
    3970:	02d00713          	li	a4,45
    3974:	40f007b3          	neg	a5,a5
    3978:	04e401a3          	sb	a4,67(s0)
    397c:	00002697          	auipc	a3,0x2
    3980:	bec68693          	addi	a3,a3,-1044 # 5568 <__sf_fake_stdout+0x34>
    3984:	4729                	li	a4,10
    3986:	a86d                	j	3a40 <_printf_i+0x146>
    3988:	07000793          	li	a5,112
    398c:	16f68363          	beq	a3,a5,3af2 <_printf_i+0x1f8>
    3990:	02d7e563          	bltu	a5,a3,39ba <_printf_i+0xc0>
    3994:	06e00793          	li	a5,110
    3998:	18f68a63          	beq	a3,a5,3b2c <_printf_i+0x232>
    399c:	06f00793          	li	a5,111
    39a0:	faf690e3          	bne	a3,a5,3940 <_printf_i+0x46>
    39a4:	400c                	lw	a1,0(s0)
    39a6:	431c                	lw	a5,0(a4)
    39a8:	0805f813          	andi	a6,a1,128
    39ac:	00478513          	addi	a0,a5,4
    39b0:	06080763          	beqz	a6,3a1e <_printf_i+0x124>
    39b4:	c308                	sw	a0,0(a4)
    39b6:	439c                	lw	a5,0(a5)
    39b8:	a88d                	j	3a2a <_printf_i+0x130>
    39ba:	07500793          	li	a5,117
    39be:	fef683e3          	beq	a3,a5,39a4 <_printf_i+0xaa>
    39c2:	07800793          	li	a5,120
    39c6:	12f68a63          	beq	a3,a5,3afa <_printf_i+0x200>
    39ca:	07300793          	li	a5,115
    39ce:	f6f699e3          	bne	a3,a5,3940 <_printf_i+0x46>
    39d2:	431c                	lw	a5,0(a4)
    39d4:	41d0                	lw	a2,4(a1)
    39d6:	4581                	li	a1,0
    39d8:	00478693          	addi	a3,a5,4
    39dc:	c314                	sw	a3,0(a4)
    39de:	0007aa83          	lw	s5,0(a5)
    39e2:	8556                	mv	a0,s5
    39e4:	2655                	jal	3d88 <memchr>
    39e6:	c501                	beqz	a0,39ee <_printf_i+0xf4>
    39e8:	41550533          	sub	a0,a0,s5
    39ec:	c048                	sw	a0,4(s0)
    39ee:	405c                	lw	a5,4(s0)
    39f0:	c81c                	sw	a5,16(s0)
    39f2:	040401a3          	sb	zero,67(s0)
    39f6:	a871                	j	3a92 <_printf_i+0x198>
    39f8:	431c                	lw	a5,0(a4)
    39fa:	04240a93          	addi	s5,s0,66
    39fe:	00478693          	addi	a3,a5,4
    3a02:	439c                	lw	a5,0(a5)
    3a04:	c314                	sw	a3,0(a4)
    3a06:	04f40123          	sb	a5,66(s0)
    3a0a:	4785                	li	a5,1
    3a0c:	b7d5                	j	39f0 <_printf_i+0xf6>
    3a0e:	0407f693          	andi	a3,a5,64
    3a12:	411c                	lw	a5,0(a0)
    3a14:	c30c                	sw	a1,0(a4)
    3a16:	dab9                	beqz	a3,396c <_printf_i+0x72>
    3a18:	07c2                	slli	a5,a5,0x10
    3a1a:	87c1                	srai	a5,a5,0x10
    3a1c:	bf81                	j	396c <_printf_i+0x72>
    3a1e:	0405f593          	andi	a1,a1,64
    3a22:	c308                	sw	a0,0(a4)
    3a24:	d9c9                	beqz	a1,39b6 <_printf_i+0xbc>
    3a26:	0007d783          	lhu	a5,0(a5)
    3a2a:	06f00713          	li	a4,111
    3a2e:	0ee68763          	beq	a3,a4,3b1c <_printf_i+0x222>
    3a32:	00002697          	auipc	a3,0x2
    3a36:	b3668693          	addi	a3,a3,-1226 # 5568 <__sf_fake_stdout+0x34>
    3a3a:	4729                	li	a4,10
    3a3c:	040401a3          	sb	zero,67(s0)
    3a40:	404c                	lw	a1,4(s0)
    3a42:	c40c                	sw	a1,8(s0)
    3a44:	0005c563          	bltz	a1,3a4e <_printf_i+0x154>
    3a48:	4008                	lw	a0,0(s0)
    3a4a:	996d                	andi	a0,a0,-5
    3a4c:	c008                	sw	a0,0(s0)
    3a4e:	e399                	bnez	a5,3a54 <_printf_i+0x15a>
    3a50:	8ab2                	mv	s5,a2
    3a52:	cd91                	beqz	a1,3a6e <_printf_i+0x174>
    3a54:	8ab2                	mv	s5,a2
    3a56:	02e7f5b3          	remu	a1,a5,a4
    3a5a:	1afd                	addi	s5,s5,-1
    3a5c:	95b6                	add	a1,a1,a3
    3a5e:	0005c583          	lbu	a1,0(a1)
    3a62:	00ba8023          	sb	a1,0(s5)
    3a66:	02e7d5b3          	divu	a1,a5,a4
    3a6a:	0ae7ff63          	bgeu	a5,a4,3b28 <_printf_i+0x22e>
    3a6e:	47a1                	li	a5,8
    3a70:	00f71e63          	bne	a4,a5,3a8c <_printf_i+0x192>
    3a74:	401c                	lw	a5,0(s0)
    3a76:	8b85                	andi	a5,a5,1
    3a78:	cb91                	beqz	a5,3a8c <_printf_i+0x192>
    3a7a:	4058                	lw	a4,4(s0)
    3a7c:	481c                	lw	a5,16(s0)
    3a7e:	00e7c763          	blt	a5,a4,3a8c <_printf_i+0x192>
    3a82:	03000793          	li	a5,48
    3a86:	fefa8fa3          	sb	a5,-1(s5)
    3a8a:	1afd                	addi	s5,s5,-1
    3a8c:	41560633          	sub	a2,a2,s5
    3a90:	c810                	sw	a2,16(s0)
    3a92:	874e                	mv	a4,s3
    3a94:	86ca                	mv	a3,s2
    3a96:	0070                	addi	a2,sp,12
    3a98:	85a2                	mv	a1,s0
    3a9a:	8526                	mv	a0,s1
    3a9c:	3b89                	jal	37ee <_printf_common>
    3a9e:	5a7d                	li	s4,-1
    3aa0:	0b451e63          	bne	a0,s4,3b5c <_printf_i+0x262>
    3aa4:	557d                	li	a0,-1
    3aa6:	50b2                	lw	ra,44(sp)
    3aa8:	5422                	lw	s0,40(sp)
    3aaa:	5492                	lw	s1,36(sp)
    3aac:	5902                	lw	s2,32(sp)
    3aae:	49f2                	lw	s3,28(sp)
    3ab0:	4a62                	lw	s4,24(sp)
    3ab2:	4ad2                	lw	s5,20(sp)
    3ab4:	4b42                	lw	s6,16(sp)
    3ab6:	6145                	addi	sp,sp,48
    3ab8:	8082                	ret
    3aba:	04d582a3          	sb	a3,69(a1)
    3abe:	00002697          	auipc	a3,0x2
    3ac2:	aaa68693          	addi	a3,a3,-1366 # 5568 <__sf_fake_stdout+0x34>
    3ac6:	400c                	lw	a1,0(s0)
    3ac8:	4308                	lw	a0,0(a4)
    3aca:	0805f813          	andi	a6,a1,128
    3ace:	411c                	lw	a5,0(a0)
    3ad0:	0511                	addi	a0,a0,4
    3ad2:	02080d63          	beqz	a6,3b0c <_printf_i+0x212>
    3ad6:	c308                	sw	a0,0(a4)
    3ad8:	0015f713          	andi	a4,a1,1
    3adc:	c701                	beqz	a4,3ae4 <_printf_i+0x1ea>
    3ade:	0205e593          	ori	a1,a1,32
    3ae2:	c00c                	sw	a1,0(s0)
    3ae4:	4741                	li	a4,16
    3ae6:	fbb9                	bnez	a5,3a3c <_printf_i+0x142>
    3ae8:	400c                	lw	a1,0(s0)
    3aea:	fdf5f593          	andi	a1,a1,-33
    3aee:	c00c                	sw	a1,0(s0)
    3af0:	b7b1                	j	3a3c <_printf_i+0x142>
    3af2:	419c                	lw	a5,0(a1)
    3af4:	0207e793          	ori	a5,a5,32
    3af8:	c19c                	sw	a5,0(a1)
    3afa:	07800793          	li	a5,120
    3afe:	04f402a3          	sb	a5,69(s0)
    3b02:	00002697          	auipc	a3,0x2
    3b06:	a7a68693          	addi	a3,a3,-1414 # 557c <__sf_fake_stdout+0x48>
    3b0a:	bf75                	j	3ac6 <_printf_i+0x1cc>
    3b0c:	0405f813          	andi	a6,a1,64
    3b10:	c308                	sw	a0,0(a4)
    3b12:	fc0803e3          	beqz	a6,3ad8 <_printf_i+0x1de>
    3b16:	07c2                	slli	a5,a5,0x10
    3b18:	83c1                	srli	a5,a5,0x10
    3b1a:	bf7d                	j	3ad8 <_printf_i+0x1de>
    3b1c:	00002697          	auipc	a3,0x2
    3b20:	a4c68693          	addi	a3,a3,-1460 # 5568 <__sf_fake_stdout+0x34>
    3b24:	4721                	li	a4,8
    3b26:	bf19                	j	3a3c <_printf_i+0x142>
    3b28:	87ae                	mv	a5,a1
    3b2a:	b735                	j	3a56 <_printf_i+0x15c>
    3b2c:	4194                	lw	a3,0(a1)
    3b2e:	431c                	lw	a5,0(a4)
    3b30:	49cc                	lw	a1,20(a1)
    3b32:	0806f813          	andi	a6,a3,128
    3b36:	00478513          	addi	a0,a5,4
    3b3a:	00080663          	beqz	a6,3b46 <_printf_i+0x24c>
    3b3e:	c308                	sw	a0,0(a4)
    3b40:	439c                	lw	a5,0(a5)
    3b42:	c38c                	sw	a1,0(a5)
    3b44:	a801                	j	3b54 <_printf_i+0x25a>
    3b46:	c308                	sw	a0,0(a4)
    3b48:	0406f693          	andi	a3,a3,64
    3b4c:	439c                	lw	a5,0(a5)
    3b4e:	daf5                	beqz	a3,3b42 <_printf_i+0x248>
    3b50:	00b79023          	sh	a1,0(a5)
    3b54:	00042823          	sw	zero,16(s0)
    3b58:	8ab2                	mv	s5,a2
    3b5a:	bf25                	j	3a92 <_printf_i+0x198>
    3b5c:	4814                	lw	a3,16(s0)
    3b5e:	8656                	mv	a2,s5
    3b60:	85ca                	mv	a1,s2
    3b62:	8526                	mv	a0,s1
    3b64:	9982                	jalr	s3
    3b66:	f3450fe3          	beq	a0,s4,3aa4 <_printf_i+0x1aa>
    3b6a:	401c                	lw	a5,0(s0)
    3b6c:	8b89                	andi	a5,a5,2
    3b6e:	e78d                	bnez	a5,3b98 <_printf_i+0x29e>
    3b70:	47b2                	lw	a5,12(sp)
    3b72:	4448                	lw	a0,12(s0)
    3b74:	f2f559e3          	bge	a0,a5,3aa6 <_printf_i+0x1ac>
    3b78:	853e                	mv	a0,a5
    3b7a:	b735                	j	3aa6 <_printf_i+0x1ac>
    3b7c:	4685                	li	a3,1
    3b7e:	8656                	mv	a2,s5
    3b80:	85ca                	mv	a1,s2
    3b82:	8526                	mv	a0,s1
    3b84:	9982                	jalr	s3
    3b86:	f1650fe3          	beq	a0,s6,3aa4 <_printf_i+0x1aa>
    3b8a:	0a05                	addi	s4,s4,1
    3b8c:	445c                	lw	a5,12(s0)
    3b8e:	4732                	lw	a4,12(sp)
    3b90:	8f99                	sub	a5,a5,a4
    3b92:	fefa45e3          	blt	s4,a5,3b7c <_printf_i+0x282>
    3b96:	bfe9                	j	3b70 <_printf_i+0x276>
    3b98:	4a01                	li	s4,0
    3b9a:	01940a93          	addi	s5,s0,25
    3b9e:	5b7d                	li	s6,-1
    3ba0:	b7f5                	j	3b8c <_printf_i+0x292>

00003ba2 <_sbrk_r>:
_sbrk_r():
    3ba2:	1141                	addi	sp,sp,-16
    3ba4:	c422                	sw	s0,8(sp)
    3ba6:	842a                	mv	s0,a0
    3ba8:	852e                	mv	a0,a1
    3baa:	1ffff797          	auipc	a5,0x1ffff
    3bae:	3607ad23          	sw	zero,890(a5) # 20002f24 <errno>
    3bb2:	c606                	sw	ra,12(sp)
    3bb4:	2635                	jal	3ee0 <_sbrk>
    3bb6:	57fd                	li	a5,-1
    3bb8:	00f51963          	bne	a0,a5,3bca <_sbrk_r+0x28>
    3bbc:	1ffff797          	auipc	a5,0x1ffff
    3bc0:	36878793          	addi	a5,a5,872 # 20002f24 <errno>
    3bc4:	439c                	lw	a5,0(a5)
    3bc6:	c391                	beqz	a5,3bca <_sbrk_r+0x28>
    3bc8:	c01c                	sw	a5,0(s0)
    3bca:	40b2                	lw	ra,12(sp)
    3bcc:	4422                	lw	s0,8(sp)
    3bce:	0141                	addi	sp,sp,16
    3bd0:	8082                	ret

00003bd2 <__sread>:
__sread():
    3bd2:	1141                	addi	sp,sp,-16
    3bd4:	c422                	sw	s0,8(sp)
    3bd6:	842e                	mv	s0,a1
    3bd8:	00e59583          	lh	a1,14(a1)
    3bdc:	c606                	sw	ra,12(sp)
    3bde:	24ad                	jal	3e48 <_read_r>
    3be0:	00054963          	bltz	a0,3bf2 <__sread+0x20>
    3be4:	487c                	lw	a5,84(s0)
    3be6:	97aa                	add	a5,a5,a0
    3be8:	c87c                	sw	a5,84(s0)
    3bea:	40b2                	lw	ra,12(sp)
    3bec:	4422                	lw	s0,8(sp)
    3bee:	0141                	addi	sp,sp,16
    3bf0:	8082                	ret
    3bf2:	00c45783          	lhu	a5,12(s0)
    3bf6:	777d                	lui	a4,0xfffff
    3bf8:	177d                	addi	a4,a4,-1
    3bfa:	8ff9                	and	a5,a5,a4
    3bfc:	00f41623          	sh	a5,12(s0)
    3c00:	b7ed                	j	3bea <__sread+0x18>

00003c02 <__swrite>:
__swrite():
    3c02:	00c5d783          	lhu	a5,12(a1)
    3c06:	1101                	addi	sp,sp,-32
    3c08:	cc22                	sw	s0,24(sp)
    3c0a:	ca26                	sw	s1,20(sp)
    3c0c:	c84a                	sw	s2,16(sp)
    3c0e:	c64e                	sw	s3,12(sp)
    3c10:	ce06                	sw	ra,28(sp)
    3c12:	1007f793          	andi	a5,a5,256
    3c16:	84aa                	mv	s1,a0
    3c18:	842e                	mv	s0,a1
    3c1a:	8932                	mv	s2,a2
    3c1c:	89b6                	mv	s3,a3
    3c1e:	c791                	beqz	a5,3c2a <__swrite+0x28>
    3c20:	00e59583          	lh	a1,14(a1)
    3c24:	4689                	li	a3,2
    3c26:	4601                	li	a2,0
    3c28:	2235                	jal	3d54 <_lseek_r>
    3c2a:	00c45783          	lhu	a5,12(s0)
    3c2e:	777d                	lui	a4,0xfffff
    3c30:	177d                	addi	a4,a4,-1
    3c32:	8ff9                	and	a5,a5,a4
    3c34:	00f41623          	sh	a5,12(s0)
    3c38:	00e41583          	lh	a1,14(s0)
    3c3c:	4462                	lw	s0,24(sp)
    3c3e:	40f2                	lw	ra,28(sp)
    3c40:	86ce                	mv	a3,s3
    3c42:	864a                	mv	a2,s2
    3c44:	49b2                	lw	s3,12(sp)
    3c46:	4942                	lw	s2,16(sp)
    3c48:	8526                	mv	a0,s1
    3c4a:	44d2                	lw	s1,20(sp)
    3c4c:	6105                	addi	sp,sp,32
    3c4e:	a83d                	j	3c8c <_write_r>

00003c50 <__sseek>:
__sseek():
    3c50:	1141                	addi	sp,sp,-16
    3c52:	c422                	sw	s0,8(sp)
    3c54:	842e                	mv	s0,a1
    3c56:	00e59583          	lh	a1,14(a1)
    3c5a:	c606                	sw	ra,12(sp)
    3c5c:	28e5                	jal	3d54 <_lseek_r>
    3c5e:	57fd                	li	a5,-1
    3c60:	00c45703          	lhu	a4,12(s0)
    3c64:	00f51b63          	bne	a0,a5,3c7a <__sseek+0x2a>
    3c68:	77fd                	lui	a5,0xfffff
    3c6a:	17fd                	addi	a5,a5,-1
    3c6c:	8ff9                	and	a5,a5,a4
    3c6e:	00f41623          	sh	a5,12(s0)
    3c72:	40b2                	lw	ra,12(sp)
    3c74:	4422                	lw	s0,8(sp)
    3c76:	0141                	addi	sp,sp,16
    3c78:	8082                	ret
    3c7a:	6785                	lui	a5,0x1
    3c7c:	8fd9                	or	a5,a5,a4
    3c7e:	00f41623          	sh	a5,12(s0)
    3c82:	c868                	sw	a0,84(s0)
    3c84:	b7fd                	j	3c72 <__sseek+0x22>

00003c86 <__sclose>:
__sclose():
    3c86:	00e59583          	lh	a1,14(a1)
    3c8a:	a825                	j	3cc2 <_close_r>

00003c8c <_write_r>:
_write_r():
    3c8c:	1141                	addi	sp,sp,-16
    3c8e:	c422                	sw	s0,8(sp)
    3c90:	842a                	mv	s0,a0
    3c92:	852e                	mv	a0,a1
    3c94:	85b2                	mv	a1,a2
    3c96:	8636                	mv	a2,a3
    3c98:	1ffff797          	auipc	a5,0x1ffff
    3c9c:	2807a623          	sw	zero,652(a5) # 20002f24 <errno>
    3ca0:	c606                	sw	ra,12(sp)
    3ca2:	9c7fe0ef          	jal	ra,2668 <_write>
    3ca6:	57fd                	li	a5,-1
    3ca8:	00f51963          	bne	a0,a5,3cba <_write_r+0x2e>
    3cac:	1ffff797          	auipc	a5,0x1ffff
    3cb0:	27878793          	addi	a5,a5,632 # 20002f24 <errno>
    3cb4:	439c                	lw	a5,0(a5)
    3cb6:	c391                	beqz	a5,3cba <_write_r+0x2e>
    3cb8:	c01c                	sw	a5,0(s0)
    3cba:	40b2                	lw	ra,12(sp)
    3cbc:	4422                	lw	s0,8(sp)
    3cbe:	0141                	addi	sp,sp,16
    3cc0:	8082                	ret

00003cc2 <_close_r>:
_close_r():
    3cc2:	1141                	addi	sp,sp,-16
    3cc4:	c422                	sw	s0,8(sp)
    3cc6:	842a                	mv	s0,a0
    3cc8:	852e                	mv	a0,a1
    3cca:	1ffff797          	auipc	a5,0x1ffff
    3cce:	2407ad23          	sw	zero,602(a5) # 20002f24 <errno>
    3cd2:	c606                	sw	ra,12(sp)
    3cd4:	2a75                	jal	3e90 <_close>
    3cd6:	57fd                	li	a5,-1
    3cd8:	00f51963          	bne	a0,a5,3cea <_close_r+0x28>
    3cdc:	1ffff797          	auipc	a5,0x1ffff
    3ce0:	24878793          	addi	a5,a5,584 # 20002f24 <errno>
    3ce4:	439c                	lw	a5,0(a5)
    3ce6:	c391                	beqz	a5,3cea <_close_r+0x28>
    3ce8:	c01c                	sw	a5,0(s0)
    3cea:	40b2                	lw	ra,12(sp)
    3cec:	4422                	lw	s0,8(sp)
    3cee:	0141                	addi	sp,sp,16
    3cf0:	8082                	ret

00003cf2 <_fstat_r>:
_fstat_r():
    3cf2:	1141                	addi	sp,sp,-16
    3cf4:	c422                	sw	s0,8(sp)
    3cf6:	842a                	mv	s0,a0
    3cf8:	852e                	mv	a0,a1
    3cfa:	85b2                	mv	a1,a2
    3cfc:	1ffff797          	auipc	a5,0x1ffff
    3d00:	2207a423          	sw	zero,552(a5) # 20002f24 <errno>
    3d04:	c606                	sw	ra,12(sp)
    3d06:	2a69                	jal	3ea0 <_fstat>
    3d08:	57fd                	li	a5,-1
    3d0a:	00f51963          	bne	a0,a5,3d1c <_fstat_r+0x2a>
    3d0e:	1ffff797          	auipc	a5,0x1ffff
    3d12:	21678793          	addi	a5,a5,534 # 20002f24 <errno>
    3d16:	439c                	lw	a5,0(a5)
    3d18:	c391                	beqz	a5,3d1c <_fstat_r+0x2a>
    3d1a:	c01c                	sw	a5,0(s0)
    3d1c:	40b2                	lw	ra,12(sp)
    3d1e:	4422                	lw	s0,8(sp)
    3d20:	0141                	addi	sp,sp,16
    3d22:	8082                	ret

00003d24 <_isatty_r>:
_isatty_r():
    3d24:	1141                	addi	sp,sp,-16
    3d26:	c422                	sw	s0,8(sp)
    3d28:	842a                	mv	s0,a0
    3d2a:	852e                	mv	a0,a1
    3d2c:	1ffff797          	auipc	a5,0x1ffff
    3d30:	1e07ac23          	sw	zero,504(a5) # 20002f24 <errno>
    3d34:	c606                	sw	ra,12(sp)
    3d36:	2aad                	jal	3eb0 <_isatty>
    3d38:	57fd                	li	a5,-1
    3d3a:	00f51963          	bne	a0,a5,3d4c <_isatty_r+0x28>
    3d3e:	1ffff797          	auipc	a5,0x1ffff
    3d42:	1e678793          	addi	a5,a5,486 # 20002f24 <errno>
    3d46:	439c                	lw	a5,0(a5)
    3d48:	c391                	beqz	a5,3d4c <_isatty_r+0x28>
    3d4a:	c01c                	sw	a5,0(s0)
    3d4c:	40b2                	lw	ra,12(sp)
    3d4e:	4422                	lw	s0,8(sp)
    3d50:	0141                	addi	sp,sp,16
    3d52:	8082                	ret

00003d54 <_lseek_r>:
_lseek_r():
    3d54:	1141                	addi	sp,sp,-16
    3d56:	c422                	sw	s0,8(sp)
    3d58:	842a                	mv	s0,a0
    3d5a:	852e                	mv	a0,a1
    3d5c:	85b2                	mv	a1,a2
    3d5e:	8636                	mv	a2,a3
    3d60:	1ffff797          	auipc	a5,0x1ffff
    3d64:	1c07a223          	sw	zero,452(a5) # 20002f24 <errno>
    3d68:	c606                	sw	ra,12(sp)
    3d6a:	2a99                	jal	3ec0 <_lseek>
    3d6c:	57fd                	li	a5,-1
    3d6e:	00f51963          	bne	a0,a5,3d80 <_lseek_r+0x2c>
    3d72:	1ffff797          	auipc	a5,0x1ffff
    3d76:	1b278793          	addi	a5,a5,434 # 20002f24 <errno>
    3d7a:	439c                	lw	a5,0(a5)
    3d7c:	c391                	beqz	a5,3d80 <_lseek_r+0x2c>
    3d7e:	c01c                	sw	a5,0(s0)
    3d80:	40b2                	lw	ra,12(sp)
    3d82:	4422                	lw	s0,8(sp)
    3d84:	0141                	addi	sp,sp,16
    3d86:	8082                	ret

00003d88 <memchr>:
memchr():
    3d88:	0ff5f593          	andi	a1,a1,255
    3d8c:	962a                	add	a2,a2,a0
    3d8e:	00c51463          	bne	a0,a2,3d96 <memchr+0xe>
    3d92:	4501                	li	a0,0
    3d94:	8082                	ret
    3d96:	00054783          	lbu	a5,0(a0)
    3d9a:	feb78de3          	beq	a5,a1,3d94 <memchr+0xc>
    3d9e:	0505                	addi	a0,a0,1
    3da0:	b7fd                	j	3d8e <memchr+0x6>

00003da2 <memmove>:
memmove():
    3da2:	04a5f363          	bgeu	a1,a0,3de8 <memmove+0x46>
    3da6:	00c586b3          	add	a3,a1,a2
    3daa:	02d57f63          	bgeu	a0,a3,3de8 <memmove+0x46>
    3dae:	fff64593          	not	a1,a2
    3db2:	4781                	li	a5,0
    3db4:	17fd                	addi	a5,a5,-1
    3db6:	00f59363          	bne	a1,a5,3dbc <memmove+0x1a>
    3dba:	8082                	ret
    3dbc:	00f68733          	add	a4,a3,a5
    3dc0:	00074803          	lbu	a6,0(a4) # fffff000 <_eusrstack+0xdfff7000>
    3dc4:	00c78733          	add	a4,a5,a2
    3dc8:	972a                	add	a4,a4,a0
    3dca:	01070023          	sb	a6,0(a4)
    3dce:	b7dd                	j	3db4 <memmove+0x12>
    3dd0:	00f58733          	add	a4,a1,a5
    3dd4:	00074683          	lbu	a3,0(a4)
    3dd8:	00f50733          	add	a4,a0,a5
    3ddc:	0785                	addi	a5,a5,1
    3dde:	00d70023          	sb	a3,0(a4)
    3de2:	fef617e3          	bne	a2,a5,3dd0 <memmove+0x2e>
    3de6:	8082                	ret
    3de8:	4781                	li	a5,0
    3dea:	bfe5                	j	3de2 <memmove+0x40>

00003dec <__malloc_lock>:
__malloc_lock():
    3dec:	8082                	ret

00003dee <__malloc_unlock>:
__malloc_unlock():
    3dee:	8082                	ret

00003df0 <_realloc_r>:
_realloc_r():
    3df0:	e581                	bnez	a1,3df8 <_realloc_r+0x8>
    3df2:	85b2                	mv	a1,a2
    3df4:	ab4ff06f          	j	30a8 <_malloc_r>
    3df8:	1101                	addi	sp,sp,-32
    3dfa:	cc22                	sw	s0,24(sp)
    3dfc:	ce06                	sw	ra,28(sp)
    3dfe:	ca26                	sw	s1,20(sp)
    3e00:	c84a                	sw	s2,16(sp)
    3e02:	c64e                	sw	s3,12(sp)
    3e04:	8432                	mv	s0,a2
    3e06:	ee01                	bnez	a2,3e1e <_realloc_r+0x2e>
    3e08:	9f8ff0ef          	jal	ra,3000 <_free_r>
    3e0c:	4901                	li	s2,0
    3e0e:	40f2                	lw	ra,28(sp)
    3e10:	4462                	lw	s0,24(sp)
    3e12:	854a                	mv	a0,s2
    3e14:	44d2                	lw	s1,20(sp)
    3e16:	4942                	lw	s2,16(sp)
    3e18:	49b2                	lw	s3,12(sp)
    3e1a:	6105                	addi	sp,sp,32
    3e1c:	8082                	ret
    3e1e:	84ae                	mv	s1,a1
    3e20:	89aa                	mv	s3,a0
    3e22:	28a9                	jal	3e7c <_malloc_usable_size_r>
    3e24:	8926                	mv	s2,s1
    3e26:	fe8574e3          	bgeu	a0,s0,3e0e <_realloc_r+0x1e>
    3e2a:	85a2                	mv	a1,s0
    3e2c:	854e                	mv	a0,s3
    3e2e:	a7aff0ef          	jal	ra,30a8 <_malloc_r>
    3e32:	892a                	mv	s2,a0
    3e34:	dd69                	beqz	a0,3e0e <_realloc_r+0x1e>
    3e36:	85a6                	mv	a1,s1
    3e38:	8622                	mv	a2,s0
    3e3a:	913fe0ef          	jal	ra,274c <memcpy>
    3e3e:	85a6                	mv	a1,s1
    3e40:	854e                	mv	a0,s3
    3e42:	9beff0ef          	jal	ra,3000 <_free_r>
    3e46:	b7e1                	j	3e0e <_realloc_r+0x1e>

00003e48 <_read_r>:
_read_r():
    3e48:	1141                	addi	sp,sp,-16
    3e4a:	c422                	sw	s0,8(sp)
    3e4c:	842a                	mv	s0,a0
    3e4e:	852e                	mv	a0,a1
    3e50:	85b2                	mv	a1,a2
    3e52:	8636                	mv	a2,a3
    3e54:	1ffff797          	auipc	a5,0x1ffff
    3e58:	0c07a823          	sw	zero,208(a5) # 20002f24 <errno>
    3e5c:	c606                	sw	ra,12(sp)
    3e5e:	288d                	jal	3ed0 <_read>
    3e60:	57fd                	li	a5,-1
    3e62:	00f51963          	bne	a0,a5,3e74 <_read_r+0x2c>
    3e66:	1ffff797          	auipc	a5,0x1ffff
    3e6a:	0be78793          	addi	a5,a5,190 # 20002f24 <errno>
    3e6e:	439c                	lw	a5,0(a5)
    3e70:	c391                	beqz	a5,3e74 <_read_r+0x2c>
    3e72:	c01c                	sw	a5,0(s0)
    3e74:	40b2                	lw	ra,12(sp)
    3e76:	4422                	lw	s0,8(sp)
    3e78:	0141                	addi	sp,sp,16
    3e7a:	8082                	ret

00003e7c <_malloc_usable_size_r>:
_malloc_usable_size_r():
    3e7c:	ffc5a783          	lw	a5,-4(a1)
    3e80:	ffc78513          	addi	a0,a5,-4
    3e84:	0007d563          	bgez	a5,3e8e <_malloc_usable_size_r+0x12>
    3e88:	95aa                	add	a1,a1,a0
    3e8a:	419c                	lw	a5,0(a1)
    3e8c:	953e                	add	a0,a0,a5
    3e8e:	8082                	ret

00003e90 <_close>:
_close():
    3e90:	05800793          	li	a5,88
    3e94:	1ffff717          	auipc	a4,0x1ffff
    3e98:	08f72823          	sw	a5,144(a4) # 20002f24 <errno>
    3e9c:	557d                	li	a0,-1
    3e9e:	8082                	ret

00003ea0 <_fstat>:
_fstat():
    3ea0:	05800793          	li	a5,88
    3ea4:	1ffff717          	auipc	a4,0x1ffff
    3ea8:	08f72023          	sw	a5,128(a4) # 20002f24 <errno>
    3eac:	557d                	li	a0,-1
    3eae:	8082                	ret

00003eb0 <_isatty>:
_isatty():
    3eb0:	05800793          	li	a5,88
    3eb4:	1ffff717          	auipc	a4,0x1ffff
    3eb8:	06f72823          	sw	a5,112(a4) # 20002f24 <errno>
    3ebc:	4501                	li	a0,0
    3ebe:	8082                	ret

00003ec0 <_lseek>:
_lseek():
    3ec0:	05800793          	li	a5,88
    3ec4:	1ffff717          	auipc	a4,0x1ffff
    3ec8:	06f72023          	sw	a5,96(a4) # 20002f24 <errno>
    3ecc:	557d                	li	a0,-1
    3ece:	8082                	ret

00003ed0 <_read>:
_read():
    3ed0:	05800793          	li	a5,88
    3ed4:	1ffff717          	auipc	a4,0x1ffff
    3ed8:	04f72823          	sw	a5,80(a4) # 20002f24 <errno>
    3edc:	557d                	li	a0,-1
    3ede:	8082                	ret

00003ee0 <_sbrk>:
_sbrk():
    3ee0:	83018793          	addi	a5,gp,-2000 # 20000d10 <heap_end.1518>
    3ee4:	439c                	lw	a5,0(a5)
    3ee6:	c791                	beqz	a5,3ef2 <_sbrk+0x12>
    3ee8:	953e                	add	a0,a0,a5
    3eea:	82a1a823          	sw	a0,-2000(gp) # 20000d10 <heap_end.1518>
    3eee:	853e                	mv	a0,a5
    3ef0:	8082                	ret
    3ef2:	1ffff797          	auipc	a5,0x1ffff
    3ef6:	03678793          	addi	a5,a5,54 # 20002f28 <_ebss>
    3efa:	953e                	add	a0,a0,a5
    3efc:	82a1a823          	sw	a0,-2000(gp) # 20000d10 <heap_end.1518>
    3f00:	853e                	mv	a0,a5
    3f02:	8082                	ret
    3f04:	74737973          	csrrci	s2,0x747,6
    3f08:	6d65                	lui	s10,0x19
    3f0a:	7220                	flw	fs0,96(a2)
    3f0c:	6e75                	lui	t3,0x1d
    3f0e:	7e7e                	flw	ft8,252(sp)
    3f10:	0d7e                	slli	s10,s10,0x1f
    3f12:	0000                	unimp
    3f14:	a5b5                	j	4580 <font_16_16_song_chin_tab+0x374>
    3f16:	0000f7bb          	0xf7bb
    3f1a:	0000                	unimp
    3f1c:	f7bbabcb          	fnmsub.q	fs7,fs7,fs11,ft10,rdn
    3f20:	0000                	unimp
    3f22:	0000                	unimp
    3f24:	b4b0a4b3          	0xb4b0a4b3
    3f28:	0000                	unimp
    3f2a:	0000                	unimp
    3f2c:	acc1                	j	41fc <font_16_16_song_chin_index+0x2c>
    3f2e:	0000f7bb          	0xf7bb
    3f32:	0000                	unimp
    3f34:	fdd0f3d7          	0xfdd0f3d7
    3f38:	0000                	unimp
    3f3a:	0000                	unimp
    3f3c:	fdd0d2d3          	0xfdd0d2d3
    3f40:	0000                	unimp
    3f42:	0000                	unimp
    3f44:	6568                	flw	fa0,76(a0)
    3f46:	6c6c                	flw	fa1,92(s0)
    3f48:	6f77206f          	j	76e3e <_data_lma+0x718aa>
    3f4c:	6c72                	flw	fs8,28(sp)
    3f4e:	0a64                	addi	s1,sp,284
    3f50:	0000                	unimp
    3f52:	0000                	unimp
    3f54:	7265                	lui	tp,0xffff9
    3f56:	2072                	fld	ft0,280(sp)
    3f58:	6170                	flw	fa2,68(a0)
    3f5a:	0d216b63          	bltu	sp,s2,4030 <s_crchi+0xac>
    3f5e:	000a                	c.slli	zero,0x2
    3f60:	6164                	flw	fs1,68(a0)
    3f62:	6174                	flw	fa3,68(a0)
    3f64:	6c20                	flw	fs0,88(s0)
    3f66:	6e65                	lui	t3,0x19
    3f68:	6520                	flw	fs0,72(a0)
    3f6a:	7272                	flw	ft4,60(sp)
    3f6c:	0d21                	addi	s10,s10,8
    3f6e:	000a                	c.slli	zero,0x2
    3f70:	63656863          	bltu	a0,s6,45a0 <font_16_16_song_chin_tab+0x394>
    3f74:	7573206b          	0x7573206b
    3f78:	206d                	jal	4022 <s_crchi+0x9e>
    3f7a:	7265                	lui	tp,0xffff9
    3f7c:	2172                	fld	ft2,280(sp)
    3f7e:	0a0d                	addi	s4,s4,3
    3f80:	0000                	unimp
	...

00003f84 <s_crchi>:
    3f84:	c100 4081 c001 4180 c001 4180 c100 4081     ...@...A...A...@
    3f94:	c001 4180 c100 4081 c100 4081 c001 4180     ...A...@...@...A
    3fa4:	c001 4180 c100 4081 c100 4081 c001 4180     ...A...@...@...A
    3fb4:	c100 4081 c001 4180 c001 4180 c100 4081     ...@...A...A...@
    3fc4:	c001 4180 c100 4081 c100 4081 c001 4180     ...A...@...@...A
    3fd4:	c100 4081 c001 4180 c001 4180 c100 4081     ...@...A...A...@
    3fe4:	c100 4081 c001 4180 c001 4180 c100 4081     ...@...A...A...@
    3ff4:	c001 4180 c100 4081 c100 4081 c001 4180     ...A...@...@...A
    4004:	c001 4180 c100 4081 c100 4081 c001 4180     ...A...@...@...A
    4014:	c100 4081 c001 4180 c001 4180 c100 4081     ...@...A...A...@
    4024:	c100 4081 c001 4180 c001 4180 c100 4081     ...@...A...A...@
    4034:	c001 4180 c100 4081 c100 4081 c001 4180     ...A...@...@...A
    4044:	c100 4081 c001 4180 c001 4180 c100 4081     ...@...A...A...@
    4054:	c001 4180 c100 4081 c100 4081 c001 4180     ...A...@...@...A
    4064:	c001 4180 c100 4081 c100 4081 c001 4180     ...A...@...@...A
    4074:	c100 4081 c001 4180 c001 4180 c100 4081     ...@...A...A...@

00004084 <s_crclo>:
    4084:	c000 01c1 03c3 c202 06c6 c707 c505 04c4     ................
    4094:	0ccc cd0d cf0f 0ece ca0a 0bcb 09c9 c808     ................
    40a4:	18d8 d919 db1b 1ada de1e 1fdf 1ddd dc1c     ................
    40b4:	d414 15d5 17d7 d616 12d2 d313 d111 10d0     ................
    40c4:	30f0 f131 f333 32f2 f636 37f7 35f5 f434     .01.3..26..7.54.
    40d4:	fc3c 3dfd 3fff fe3e 3afa fb3b f939 38f8     <..=.?>..:;.9..8
    40e4:	e828 29e9 2beb ea2a 2eee ef2f ed2d 2cec     (..).+*.../.-..,
    40f4:	24e4 e525 e727 26e6 e222 23e3 21e1 e020     .$%.'..&"..#.! .
    4104:	60a0 a161 a363 62a2 a666 67a7 65a5 a464     .`a.c..bf..g.ed.
    4114:	ac6c 6dad 6faf ae6e 6aaa ab6b a969 68a8     l..m.on..jk.i..h
    4124:	b878 79b9 7bbb ba7a 7ebe bf7f bd7d 7cbc     x..y.{z..~..}..|
    4134:	74b4 b575 b777 76b6 b272 73b3 71b1 b070     .tu.w..vr..s.qp.
    4144:	9050 5191 5393 9252 5696 9757 9555 5494     P..Q.SR..VW.U..T
    4154:	5c9c 9d5d 9f5f 5e9e 9a5a 5b9b 5999 9858     .\]._..^Z..[.YX.
    4164:	4888 8949 8b4b 4a8a 8e4e 4f8f 4d8d 8c4c     .HI.K..JN..O.ML.
    4174:	8444 4585 4787 8646 4282 8343 8141 4080     D..E.GF..BC.A..@
    4184:	dfb3 e7b4 edb4 f3ce 0000 0000 f8c7 f2d3     ................
    4194:	edb4 f3ce 0000 0000 3332 312e 2e32 3232     ........23.12.22
    41a4:	462c 6972 0000 0000 3125 2e64 3125 5664     ,Fri....%1d.%1dV
    41b4:	0000 0000                                   ....

000041b8 <font_16_16_desc>:
    41b8:	41d0 0000 420c 0000 1010 0000 0000 0000     .A...B..........
    41c8:	45ac 0000 1008 0000                         .E......

000041d0 <font_16_16_song_chin_index>:
    41d0:	b1ca e4bc e8c9 c3d6 d5c8 dac6 c1c1 c8b6     ................
    41e0:	d4cf beca a3c4 bdca efd3 d4d1 f6c2 e5b3     ................
    41f0:	b5c6 cac2 bcd5 d5bf c8b1 ddd0 dfc3 d4d7     ................
    4200:	afb6 fcb8 c2d0 d8b9 dad3 0000               ............

0000420c <font_16_16_song_chin_tab>:
    420c:	0800 0800 087c 0844 fe45 0844 0844 087c     ....|.D.E.D.D.|.
    421c:	8844 4844 4844 0844 087c 0844 2800 1000     D.DHDHD.|.D..(..
    422c:	0020 fc13 0410 0440 c447 4444 4444 4444      .....@.G.DDDDDD
    423c:	c447 4444 4444 4444 c447 0440 1440 0840     G.DDDDDDG.@.@.@.
    424c:	0000 f021 1011 1011 1001 0e02 00f4 f813     ..!.............
    425c:	0811 1011 9010 a014 4018 a010 1803 060c     .........@......
    426c:	fc7f 4444 fc7f 0001 fc7f 0001 f01f 1010     ..DD............
    427c:	f01f 1010 f01f 1010 f01f 1010 feff 0000     ................
    428c:	0000 f01f 1010 1010 1010 1010 1010 f01f     ................
    429c:	1010 1010 1010 1010 1010 1010 f01f 1010     ................
    42ac:	0022 7c22 447f 4422 4422 7c3e 4422 4422     "."|.D"D"D>|"D"D
    42bc:	443e 7c22 4422 44ff 8404 8422 1441 0882     >D"|"D.D..".A...
    42cc:	0002 0001 fc7f 0000 f01f 1010 f01f 0000     ................
    42dc:	fe7f 0240 e48f 2008 2008 2210 2220 1ec0     ..@.... . ." "..
    42ec:	0001 8000 fe3f 2022 2022 fc3f 2022 2022     ....?." " ?." " 
    42fc:	e023 0020 f02f 1024 2042 c041 3086 0e38     #. ./.$.B A..08.
    430c:	0000 f01f 1010 1010 f01f 1010 1010 f01f     ................
    431c:	4004 4444 4424 4814 5014 4004 feff 0000     .@DD$D.H.P.@....
    432c:	0000 f83f 0000 0000 0000 0000 feff 0001     ..?.............
    433c:	0001 1011 0811 0421 0241 0281 0005 0002     ......!.A.......
    434c:	1011 1011 fc17 1011 00fc f813 0832 f83b     ............2.;.
    435c:	0856 f853 4090 fc17 a010 1011 0812 0614     V.S..@..........
    436c:	4800 4400 4400 4000 feff 4000 4000 403e     .H.D.D.@...@.@>@
    437c:	4008 4008 2008 2208 120f 0a78 0620 0200     .@.@. ."..x. ...
    438c:	0000 fc47 4020 4020 f803 8800 88e0 fe27     ..G. @ @......'.
    439c:	0020 0020 f823 0822 082a 0832 f823 0802      . .#.".*.2.#...
    43ac:	0002 0001 feff 0000 0000 f83f 0000 0000     ..........?.....
    43bc:	f83f 0000 0000 f83f 0820 0820 f83f 0820     ?.....?. . .?. .
    43cc:	4000 2078 1048 e049 2248 3478 b84b b048     .@x H.I.H"x4K.H.
    43dc:	a848 a878 2849 2449 244a 224c a048 4098     H.x.I(I$J$L"H..@
    43ec:	4000 4040 4020 4020 fc07 4404 4414 4414     .@@@ @ @...D.D.D
    43fc:	4424 44e4 fc27 4424 4020 4020 4020 4000     $D.D'.$D @ @ @.@
    440c:	0010 fe11 2050 405c fc51 0451 24ff 2401     ....P \@Q.Q..$.$
    441c:	2411 2455 2455 4455 5084 8808 0431 02c2     .$U$U$UD.P..1...
    442c:	0002 0001 fc7f 0002 4444 882f 1011 4822     ........DD/..."H
    443c:	e44f 2000 0001 feff 0001 0001 0001 0001     O.. ............
    444c:	0001 0001 0001 fe01 0001 0001 0001 0001     ................
    445c:	f83f 0820 0820 0820 0820 0820 f83f 0820     ?. . . . . .?. .
    446c:	0002 0001 fe7f 0240 2488 1010 0820 0000     ......@..$.. ...
    447c:	f01f 0001 0001 0001 0001 0001 fc7f 0000     ................
    448c:	8000 8020 8020 8420 8820 9020 a03e c020     .. . . . . .>. .
    449c:	8020 8020 8020 8220 8226 8238 7e20 0000      . . . .&.8. ~..
    44ac:	4008 4008 4008 4010 fe17 4030 e030 e050     .@.@.@.@..0@0.P.
    44bc:	5091 5011 4812 4414 4218 4010 4010 4010     .P.P.H.D.B.@.@.@
    44cc:	0000 fc01 047d 0445 0445 fc7d 2045 2045     ....}.E.E.}.E E 
    44dc:	fe7d 2045 2045 1045 127d 4a45 8601 0201     }.E E E.}.EJ....
    44ec:	0001 0002 0004 f01f 1010 1010 1010 f01f     ................
    44fc:	1010 1010 f01f 1010 1010 1010 f01f 1010     ................
    450c:	4000 4000 407c 4000 fc01 4400 44fe 4420     .@.@|@.@...D.D D
    451c:	4420 8420 8448 8444 04fd 0445 2802 1004      D .H.D...E..(..
    452c:	0000 feff 0001 0001 f83f 0821 0821 f83f     ........?.!.!.?.
    453c:	0821 0821 f83f 0011 000a 0006 c019 3ee0     !.!.?..........>
    454c:	0010 0408 787f 4000 4022 4014 7eff 4808     .....x.@"@.@.~.H
    455c:	4808 487f 4808 482a 4849 8888 8828 0811     .H.H.H*HIH..(...
    456c:	1010 1008 2008 0000 f83f 0001 0001 0001     ..... ..?.......
    457c:	feff 0001 8002 8002 4004 2008 1830 06c0     .........@. 0...
    458c:	0000 f83f 0001 0001 0001 0001 feff 0001     ..?.............
    459c:	0001 0001 0001 0001 0001 0001 0005 0002     ................

000045ac <font_16_8_song_eng_tab>:
	...
    45bc:	0000 1000 1010 1010 1010 0000 1010 0000     ................
    45cc:	1200 2424 0048 0000 0000 0000 0000 0000     ..$$H...........
    45dc:	0000 1200 1212 247e 2424 247e 2424 0000     ......~$$$~$$$..
    45ec:	0000 3c08 4a4a 3848 0a0c 4a0a 3c4a 0808     ...<JJH8...JJ<..
    45fc:	0000 4400 a8a4 b0a8 1a54 2a2a 444a 0000     ...D....T.**JD..
    460c:	0000 3000 4848 5048 a46e 9894 7689 0000     ...0HHHPn....v..
    461c:	6000 2020 0040 0000 0000 0000 0000 0000     .`  @...........
    462c:	0200 0804 1008 1010 1010 0810 0408 0002     ................
    463c:	4000 1020 0810 0808 0808 1008 2010 0040     .@ .......... @.
    464c:	0000 0000 1010 38d6 d638 1010 0000 0000     .......88.......
    465c:	0000 0000 0800 0808 087f 0808 0000 0000     ................
	...
    4678:	2060 4020 0000 0000 0000 0000 007e 0000     `  @........~...
	...
    4698:	6060 0000 0000 0402 0404 0808 1010 2010     ``............. 
    46a8:	4020 0040 0000 1800 4224 4242 4242 4242      @@.....$BBBBBBB
    46b8:	1824 0000 0000 0800 0838 0808 0808 0808     $.......8.......
    46c8:	3e08 0000 0000 3c00 4242 0242 0804 2010     .>.....<BBB.... 
    46d8:	7e42 0000 0000 3c00 4242 0402 0418 4202     B~.....<BB.....B
    46e8:	3c42 0000 0000 0400 0c0c 2414 4424 047f     B<.........$$D..
    46f8:	1f04 0000 0000 7e00 4040 7840 0244 4202     .......~@@@xD..B
    4708:	3844 0000 0000 1800 4024 5c40 4262 4242     D8......$@@\bBBB
    4718:	1c22 0000 0000 7e00 0442 0804 1008 1010     "......~B.......
    4728:	1010 0000 0000 3c00 4242 2442 2418 4242     .......<BBB$.$BB
    4738:	3c42 0000 0000 3800 4244 4242 3a46 0202     B<.....8DBBBF:..
    4748:	1824 0000 0000 0000 0000 1818 0000 0000     $...............
    4758:	1818 0000 0000 0000 0000 1000 0000 0000     ................
    4768:	1000 1010 0000 0200 0804 2010 2040 0810     ........... @ ..
    4778:	0204 0000 0000 0000 0000 007e 7e00 0000     ..........~..~..
    4788:	0000 0000 0000 4000 1020 0408 0402 1008     .......@ .......
    4798:	4020 0000 0000 3c00 4242 0462 0808 0008      @.....<BBb.....
    47a8:	1818 0000 0000 3800 5a44 aaaa aaaa 5caa     .......8DZ.....\
    47b8:	3c42 0000 0000 1000 1810 2828 3c24 4244     B<........(($<DB
    47c8:	e742 0000 0000 f800 4444 7844 4244 4242     B.......DDDxDBBB
    47d8:	f844 0000 0000 3e00 4242 8080 8080 4280     D......>BB.....B
    47e8:	3844 0000 0000 f800 4244 4242 4242 4242     D8......DBBBBBBB
    47f8:	f844 0000 0000 fc00 4842 7848 4848 4240     D.......BHHxHH@B
    4808:	fc42 0000 0000 fc00 4842 7848 4848 4040     B.......BHHxHH@@
    4818:	e040 0000 0000 3c00 4444 8080 8e80 4484     @......<DD.....D
    4828:	3844 0000 0000 e700 4242 4242 427e 4242     D8......BBBB~BBB
    4838:	e742 0000 0000 7c00 1010 1010 1010 1010     B......|........
    4848:	7c10 0000 0000 3e00 0808 0808 0808 0808     .|.....>........
    4858:	0808 f088 0000 ee00 4844 7050 4850 4448     ........DHPpPHHD
    4868:	ee44 0000 0000 e000 4040 4040 4040 4040     D.......@@@@@@@@
    4878:	fe42 0000 0000 ee00 6c6c 6c6c 546c 5454     B.......lllllTTT
    4888:	d654 0000 0000 c700 6262 5252 4a4a 464a     T.......bbRRJJJF
    4898:	e246 0000 0000 3800 8244 8282 8282 8282     F......8D.......
    48a8:	3844 0000 0000 fc00 4242 4242 407c 4040     D8......BBBB|@@@
    48b8:	e040 0000 0000 3800 8244 8282 8282 b282     @......8D.......
    48c8:	384c 0006 0000 fc00 4242 7c42 4848 4444     L8......BBB|HHDD
    48d8:	e342 0000 0000 3e00 4242 2040 0418 4202     B......>BB@ ...B
    48e8:	7c42 0000 0000 fe00 1092 1010 1010 1010     B|..............
    48f8:	3810 0000 0000 e700 4242 4242 4242 4242     .8......BBBBBBBB
    4908:	3c42 0000 0000 e700 4242 2444 2824 1828     B<......BBD$$((.
    4918:	1010 0000 0000 d600 5454 5454 6c54 2828     ........TTTTTl((
    4928:	2828 0000 0000 e700 2442 1824 1818 2424     ((......B$$...$$
    4938:	e742 0000 0000 ee00 4444 2828 1010 1010     B.......DD((....
    4948:	3810 0000 0000 7e00 0484 0808 2010 4220     .8.....~.....  B
    4958:	fc42 0000 1e00 1010 1010 1010 1010 1010     B...............
    4968:	1010 001e 0000 2040 2020 1010 0810 0408     ......@   ......
    4978:	0404 0202 7800 0808 0808 0808 0808 0808     .....x..........
    4988:	0808 0078 1800 0024 0000 0000 0000 0000     ..x...$.........
	...
    49a8:	0000 ff00 6000 0010 0000 0000 0000 0000     .....`..........
	...
    49c0:	0000 3800 0c44 4434 364c 0000 0000 0000     ...8D.4DL6......
    49d0:	40c0 5840 4264 4242 5864 0000 0000 0000     .@@XdBBBdX......
    49e0:	0000 1c00 4022 4040 1c22 0000 0000 0000     ...."@@@".......
    49f0:	0206 3e02 4242 4242 3b46 0000 0000 0000     ...>BBBBF;......
    4a00:	0000 3c00 4242 407e 3c42 0000 0000 0000     ...<BB~@B<......
    4a10:	120c 7c10 1010 1010 7c10 0000 0000 0000     ...|.....|......
    4a20:	0000 3e00 4444 4038 423c 3c42 0000 0000     ...>DD8@<BB<....
    4a30:	40c0 5c40 4262 4242 e742 0000 0000 3000     .@@\bBBBB......0
    4a40:	0030 7000 1010 1010 7c10 0000 0000 0c00     0..p.....|......
    4a50:	000c 1c00 0404 0404 0404 7844 0000 0000     ..........Dx....
    4a60:	40c0 4e40 5048 4870 ee44 0000 0000 1000     .@@NHPpHD.......
    4a70:	1070 1010 1010 1010 7c10 0000 0000 0000     p........|......
    4a80:	0000 fe00 4949 4949 ed49 0000 0000 0000     ....IIIII.......
    4a90:	0000 dc00 4262 4242 e742 0000 0000 0000     ....bBBBB.......
    4aa0:	0000 3c00 4242 4242 3c42 0000 0000 0000     ...<BBBBB<......
    4ab0:	0000 d800 4264 4242 5864 e040 0000 0000     ....dBBBdX@.....
    4ac0:	0000 1a00 4226 4242 1a26 0702 0000 0000     ....&BBB&.......
    4ad0:	0000 ee00 2032 2020 f820 0000 0000 0000     ....2    .......
    4ae0:	0000 3e00 4042 023c 7c42 0000 0000 0000     ...>B@<.B|......
    4af0:	1000 7c10 1010 1010 0c12 0000 0000 0000     ...|............
    4b00:	0000 c600 4242 4242 3b46 0000 0000 0000     ....BBBBF;......
    4b10:	0000 ee00 4444 2828 1010 0000 0000 0000     ....DD((........
    4b20:	0000 db00 4a89 545a 2424 0000 0000 0000     .....JZT$$......
    4b30:	0000 7600 1824 1818 6e24 0000 0000 0000     ...v$...$n......
    4b40:	0000 e700 2442 1824 1018 6010 0000 0000     ....B$$....`....
    4b50:	0000 7e00 0844 1010 7e22 0000 0300 0404     ...~D..."~......
    4b60:	0404 0404 0408 0404 0404 0003 0808 0808     ................
    4b70:	0808 0808 0808 0808 0808 0808 c000 2020     ..............  
    4b80:	2020 2020 2010 2020 2020 00c0 5a20 0004         .     .. Z..
	...

00004b9c <font_32_16_zkqk_num_tab>:
    4b9c:	0000 0000 0000 fc1f fe3f ff7f 0770 0770     ........?...p.p.
    4bac:	0770 0770 0770 0770 0770 0770 0770 0770     p.p.p.p.p.p.p.p.
    4bbc:	0770 0770 0770 0770 0770 0770 0770 0770     p.p.p.p.p.p.p.p.
    4bcc:	0770 0770 ff7f fe3f fc1f 0000 0000 0000     p.p...?.........
    4bdc:	0000 0000 0000 000f 800f c00f c001 c001     ................
    4bec:	c001 c001 c001 c001 c001 c001 c001 c001     ................
    4bfc:	c001 c001 c001 c001 c001 c001 c001 c001     ................
    4c0c:	c001 c001 f00f f00f f00f 0000 0000 0000     ................
    4c1c:	0000 0000 0000 fc7f fe7f ff7f 0700 0700     ................
    4c2c:	0700 0700 0700 0700 0700 0700 0700 ff1f     ................
    4c3c:	fe3f fc7f 0070 0070 0070 0070 0070 0070     ?...p.p.p.p.p.p.
    4c4c:	0070 0070 ff7f ff3f ff1f 0000 0000 0000     p.p...?.........
    4c5c:	0000 0000 0000 f87f fc7f fe7f 0e00 0e00     ................
    4c6c:	0e00 0e00 0e00 0e00 0e00 0e00 0e00 fc7f     ................
    4c7c:	f87f fc7f 0e00 0e00 0e00 0e00 0e00 0e00     ................
    4c8c:	0e00 0e00 fe7f fc7f f87f 0000 0000 0000     ................
    4c9c:	0000 0000 0000 0770 0770 0770 0770 0770     ......p.p.p.p.p.
    4cac:	0770 0770 0770 0770 0770 0770 0770 0770     p.p.p.p.p.p.p.p.
    4cbc:	0770 0770 ff7f ff3f ff1f 0700 0700 0700     p.p...?.........
    4ccc:	0700 0700 0700 0700 0700 0000 0000 0000     ................
    4cdc:	0000 0000 0000 ff1f ff3f ff7f 0070 0070     ........?...p.p.
    4cec:	0070 0070 0070 0070 0070 0070 0070 fc7f     p.p.p.p.p.p.p...
    4cfc:	fe3f ff1f 0700 0700 0700 0700 0700 0700     ?...............
    4d0c:	0700 0700 ff7f fe7f fc7f 0000 0000 0000     ................
    4d1c:	0000 0000 0000 ff1f ff3f ff7f 0070 0070     ........?...p.p.
    4d2c:	0070 0070 0070 0070 0070 fc7f fe7f ff7f     p.p.p.p.p.......
    4d3c:	0770 0770 0770 0770 0770 0770 0770 0770     p.p.p.p.p.p.p.p.
    4d4c:	0770 0770 ff7f fe3f fc1f 0000 0000 0000     p.p...?.........
    4d5c:	0000 0000 0000 f83f fc3f fe3f 0e00 0e00     ......?.?.?.....
    4d6c:	0e00 0e00 0e00 0e00 0e00 0e00 0e00 0e00     ................
    4d7c:	0e00 0e00 0e00 0e00 0e00 0e00 0e00 0e00     ................
    4d8c:	0e00 0e00 0e00 0e00 0e00 0000 0000 0000     ................
    4d9c:	0000 0000 0000 fc1f fe3f ff7f 0770 0770     ........?...p.p.
    4dac:	0770 0770 0770 0770 0770 0770 fe3f fc1f     p.p.p.p.p.p.?...
    4dbc:	fe3f 0770 0770 0770 0770 0770 0770 0770     ?.p.p.p.p.p.p.p.
    4dcc:	0770 0770 ff7f fe3f fc1f 0000 0000 0000     p.p...?.........
    4ddc:	0000 0000 0000 fc1f fe3f ff7f 0770 0770     ........?...p.p.
    4dec:	0770 0770 0770 0770 0770 0770 0770 0770     p.p.p.p.p.p.p.p.
    4dfc:	fe7f fc3f fe1f 0700 0700 0700 0700 0700     ..?.............
    4e0c:	0700 0700 ff7f fe7f fc7f 0000 0000 0000     ................

00004e1c <font_44_22_zkqk_num_tab>:
	...
    4e28:	ff0f 1fc0 e0ff ff3f 7ff0 f8ff 0078 7878     ......?.....x.xx
    4e38:	7800 0078 7878 7800 0078 7878 7800 0078     .xx.xx.xx.xx.xx.
    4e48:	7878 7800 0078 7878 7800 0078 7878 7800     xx.xx.xx.xx.xx.x
    4e58:	0078 7878 7800 0078 7878 7800 0078 7878     x.xx.xx.xx.xx.xx
    4e68:	7800 0078 7878 7800 0078 7878 7800 0078     .xx.xx.xx.xx.xx.
    4e78:	7878 7800 0078 7878 7800 0078 7878 7800     xx.xx.xx.xx.xx.x
    4e88:	ff7f 3ff8 f0ff ff1f 0fe0 c0ff 0000 0000     ...?............
	...
    4eac:	e007 0300 00f0 f803 0300 00fc 3c00 0000     .............<..
    4ebc:	003c 3c00 0000 003c 3c00 0000 003c 3c00     <..<..<..<..<..<
    4ecc:	0000 003c 3c00 0000 003c 3c00 0000 003c     ..<..<..<..<..<.
    4edc:	3c00 0000 003c 3c00 0000 003c 3c00 0000     .<..<..<..<..<..
    4eec:	003c 3c00 0000 003c 3c00 0000 003c 3c00     <..<..<..<..<..<
    4efc:	0000 003c 3c00 0000 003c 3c00 0000 003c     ..<..<..<..<..<.
    4f0c:	ff03 0380 80ff ff03 0380 80ff 0000 0000     ................
	...
    4f30:	ff7f 7fc0 e0ff ff7f 7ff0 f8ff 0000 0078     ..............x.
    4f40:	7800 0000 0078 7800 0000 0078 7800 0000     .x..x..x..x..x..
    4f50:	0078 7800 0000 0078 7800 0000 0078 7800     x..x..x..x..x..x
    4f60:	ff0f 1ff8 f0ff ff3f 7fe0 c0ff 0078 7800     ......?.....x..x
    4f70:	0000 0078 7800 0000 0078 7800 0000 0078     ..x..x..x..x..x.
    4f80:	7800 0000 0078 7800 0000 0078 7800 0000     .x..x..x..x..x..
    4f90:	ff7f 3ff8 f8ff ff1f 0ff8 f8ff 0000 0000     ...?............
	...
    4fb4:	ff7f 7fc0 e0ff ff7f 7ff0 f8ff 0000 0078     ..............x.
    4fc4:	7800 0000 0078 7800 0000 0078 7800 0000     .x..x..x..x..x..
    4fd4:	0078 7800 0000 0078 7800 0000 0078 7800     x..x..x..x..x..x
    4fe4:	ff7f 7ff0 e0ff ff7f 7fe0 f0ff 0000 0078     ..............x.
    4ff4:	7800 0000 0078 7800 0000 0078 7800 0000     .x..x..x..x..x..
    5004:	0078 7800 0000 0078 7800 0000 0078 7800     x..x..x..x..x..x
    5014:	ff7f 7ff8 f0ff ff7f 7fe0 c0ff 0000 0000     ................
	...
    5038:	0078 7878 7800 0078 7878 7800 0078 7878     x.xx.xx.xx.xx.xx
    5048:	7800 0078 7878 7800 0078 7878 7800 0078     .xx.xx.xx.xx.xx.
    5058:	7878 7800 0078 7878 7800 0078 7878 7800     xx.xx.xx.xx.xx.x
    5068:	0078 7878 7800 0078 7878 7800 ff7f 3ff8     x.xx.xx.xx.x...?
    5078:	f8ff ff1f 0ff8 f8ff 0000 0078 7800 0000     ..........x..x..
    5088:	0078 7800 0000 0078 7800 0000 0078 7800     x..x..x..x..x..x
    5098:	0000 0078 7800 0000 0078 7800 0000 0078     ..x..x..x..x..x.
	...
    50bc:	ff0f 1ff8 f8ff ff3f 7ff8 f8ff 0078 7800     ......?.....x..x
    50cc:	0000 0078 7800 0000 0078 7800 0000 0078     ..x..x..x..x..x.
    50dc:	7800 0000 0078 7800 0000 0078 7800 0000     .x..x..x..x..x..
    50ec:	ff7f 3fc0 e0ff ff1f 0ff0 f8ff 0000 0078     ...?..........x.
    50fc:	7800 0000 0078 7800 0000 0078 7800 0000     .x..x..x..x..x..
    510c:	0078 7800 0000 0078 7800 0000 0078 7800     x..x..x..x..x..x
    511c:	ff7f 7ff8 f0ff ff7f 7fe0 c0ff 0000 0000     ................
	...
    5140:	ff0f 1ffc fcff ff3f 7ffc fcff 0078 7800     ......?.....x..x
    5150:	0000 0078 7800 0000 0078 7800 0000 0078     ..x..x..x..x..x.
    5160:	7800 0000 0078 7800 0000 ff7f 7fe0 f0ff     .x..x..x........
    5170:	ff7f 7ff8 fcff 0078 783c 3c00 0078 783c     ......x.<x.<x.<x
    5180:	3c00 0078 783c 3c00 0078 783c 3c00 0078     .<x.<x.<x.<x.<x.
    5190:	783c 3c00 0078 783c 3c00 0078 783c 3c00     <x.<x.<x.<x.<x.<
    51a0:	ff7f 3ffc f8ff ff1f 0ff0 e0ff 0000 0000     ...?............
	...
    51c4:	ff3f 3f80 c0ff ff3f 3fe0 f0ff 0000 00f0     ?..?..?..?......
    51d4:	f000 0000 00f0 f000 0000 00f0 f000 0000     ................
    51e4:	00f0 f000 0000 00f0 f000 0000 00f0 f000     ................
    51f4:	0000 00f0 f000 0000 00f0 f000 0000 00f0     ................
    5204:	f000 0000 00f0 f000 0000 00f0 f000 0000     ................
    5214:	00f0 f000 0000 00f0 f000 0000 00f0 f000     ................
    5224:	0000 00f0 f000 0000 00f0 f000 0000 0000     ................
	...
    5248:	ff0f 1fe0 f0ff ff3f 7ff8 fcff 0078 783c     ......?.....x.<x
    5258:	3c00 0078 783c 3c00 0078 783c 3c00 0078     .<x.<x.<x.<x.<x.
    5268:	783c 3c00 0078 783c 3c00 0078 3f3c f8ff     <x.<x.<x.<x.<?..
    5278:	ff1f 1ff0 f0ff ff3f 78f8 3c00 0078 783c     ......?..x.<x.<x
    5288:	3c00 0078 783c 3c00 0078 783c 3c00 0078     .<x.<x.<x.<x.<x.
    5298:	783c 3c00 0078 783c 3c00 0078 783c 3c00     <x.<x.<x.<x.<x.<
    52a8:	ff7f 3ffc f8ff ff1f 0ff0 e0ff 0000 0000     ...?............
	...
    52cc:	ff0f 1fe0 f0ff ff3f 7ff8 fcff 0078 783c     ......?.....x.<x
    52dc:	3c00 0078 783c 3c00 0078 783c 3c00 0078     .<x.<x.<x.<x.<x.
    52ec:	783c 3c00 0078 783c 3c00 0078 783c 3c00     <x.<x.<x.<x.<x.<
    52fc:	0078 783c 3c00 ff7f 3ff8 f0ff ff1f 0ff0     x.<x.<...?......
    530c:	f8ff 0000 003c 3c00 0000 003c 3c00 0000     ....<..<..<..<..
    531c:	003c 3c00 0000 003c 3c00 0000 003c 3c00     <..<..<..<..<..<
    532c:	ff7f 7ffc f8ff ff7f 7ff0 e0ff 0000 0000     ................
	...

00005344 <img_mh_tab>:
	...
    534c:	7e00 7e7e 7e7e 7e7e 0000 0000 0000 0000     .~~~~~~~........
    535c:	0000 0000 7e7e 7e7e 7e7e 007e 0000 0000     ....~~~~~~~.....
    536c:	0000 0000 b1ca e4bc e8c9 c3d6 0000 0000     ................
    537c:	d5c8 dac6 e8c9 c3d6 0000 0000 c1c1 c8b6     ................
    538c:	e8c9 c3d6 0000 0000 d4cf beca a3c4 bdca     ................
    539c:	0000 0000 efd3 d4d1 e8c9 c3d6 0000 0000     ................
    53ac:	f6c2 e5b3 b5c6 cac2 0000 0000 bcd5 d5bf     ................
    53bc:	c8b1 0000 ddd0 dfc3 e8c9 c3d6 0000 0000     ................
    53cc:	d4d7 afb6 fcb8 c2d0 0000 0000 d8b9 dad3     ................
    53dc:	0000 0000 efd3 d4d1 a1d1 f1d4 fdd0 aad7     ................
    53ec:	d4cf beca ccb9 febc fdc9 b6bc d6bb b4b8     ................
    53fc:	f6b3 a7b3 e6b0 beb1 c5d0 a2cf b5cf b3cd     ................
    540c:	f4c6 afb6 d0d6 ebc7 d4c9 c8b5 acc6 ccbf     ................
    541c:	fdb4 fabb b1ca e4bc d8b9 aabf a6d3 b4b0     ................
    542c:	fcbc a2d3 c4ce f2bc b1b7 e5cc d6b7 d3d6     ................
    543c:	ebc3 edc8 b2d3 b9ca dcc4 f2b4 d5b1 a3b1     ................
    544c:	f4c1 afcb dfc3 b9b5 c6bc cbcd b7c8 a8b6     ................
    545c:	a1c8 fbcf 5ad5 78df f193 44de 40ef 89bc     .....Z.x...D.@..
    546c:	cd8f 538f 79bd a286 d384 88d5 4399 7295     ...S.y.......C.r
    547c:	67e9 50ea 5fe9 aa91 49e6 86ba 77f3 8ae7     .g.P._...I...w..
    548c:	9bdc 5de9 8bd3 5fb4 e2b2 d4ca d1d2 a3cd     ...]..._........
    549c:	b9d6 ccbc e7b5 f7c6 cab9 cfd5 b4d7 accc     ................
    54ac:	ddd4 cbd4 d0d0 d0d6 a3ca e0d3 ceb4 fdca     ................
    54bc:	a4d4 c6bc c4ba b1ca d6b7 d3d1 c7d2 0000     ................
    54cc:	cf98 ffff cfc0 ffff cfe8 ffff d000 ffff     ................
    54dc:	d01a ffff d02a ffff d052 ffff d07a ffff     ....*...R...z...
    54ec:	d092 ffff d0ac ffff                         ........

000054f4 <__sf_fake_stderr>:
	...

00005514 <__sf_fake_stdin>:
	...

00005534 <__sf_fake_stdout>:
	...
    5554:	2d23 2b30 0020 0000 6c68 004c 6665 4567     #-0+ ...hlL.efgE
    5564:	4746 0000 3130 3332 3534 3736 3938 4241     FG..0123456789AB
    5574:	4443 4645 0000 0000 3130 3332 3534 3736     CDEF....01234567
    5584:	3938 6261 6463 6665 0000 0000               89abcdef....

00005590 <_global_impure_ptr>:
    5590:	0c7c 2000                                   |.. 
